
bomb:     file format elf64-x86-64


Disassembly of section .init:

0000000000000eb0 <_init>:
_init():
 eb0:	48 83 ec 08          	sub    $0x8,%rsp
 eb4:	48 8b 05 25 31 20 00 	mov    0x203125(%rip),%rax        # 203fe0 <__gmon_start__>
 ebb:	48 85 c0             	test   %rax,%rax
 ebe:	74 02                	je     ec2 <_init+0x12>
 ec0:	ff d0                	callq  *%rax
 ec2:	48 83 c4 08          	add    $0x8,%rsp
 ec6:	c3                   	retq   

Disassembly of section .plt:

0000000000000ed0 <.plt>:
     ed0:	ff 35 32 31 20 00    	pushq  0x203132(%rip)        # 204008 <_GLOBAL_OFFSET_TABLE_+0x8>
     ed6:	ff 25 34 31 20 00    	jmpq   *0x203134(%rip)        # 204010 <_GLOBAL_OFFSET_TABLE_+0x10>
     edc:	0f 1f 40 00          	nopl   0x0(%rax)

0000000000000ee0 <getenv@plt>:
     ee0:	ff 25 32 31 20 00    	jmpq   *0x203132(%rip)        # 204018 <getenv@GLIBC_2.2.5>
     ee6:	68 00 00 00 00       	pushq  $0x0
     eeb:	e9 e0 ff ff ff       	jmpq   ed0 <.plt>

0000000000000ef0 <__errno_location@plt>:
     ef0:	ff 25 2a 31 20 00    	jmpq   *0x20312a(%rip)        # 204020 <__errno_location@GLIBC_2.2.5>
     ef6:	68 01 00 00 00       	pushq  $0x1
     efb:	e9 d0 ff ff ff       	jmpq   ed0 <.plt>

0000000000000f00 <strcpy@plt>:
     f00:	ff 25 22 31 20 00    	jmpq   *0x203122(%rip)        # 204028 <strcpy@GLIBC_2.2.5>
     f06:	68 02 00 00 00       	pushq  $0x2
     f0b:	e9 c0 ff ff ff       	jmpq   ed0 <.plt>

0000000000000f10 <puts@plt>:
     f10:	ff 25 1a 31 20 00    	jmpq   *0x20311a(%rip)        # 204030 <puts@GLIBC_2.2.5>
     f16:	68 03 00 00 00       	pushq  $0x3
     f1b:	e9 b0 ff ff ff       	jmpq   ed0 <.plt>

0000000000000f20 <write@plt>:
     f20:	ff 25 12 31 20 00    	jmpq   *0x203112(%rip)        # 204038 <write@GLIBC_2.2.5>
     f26:	68 04 00 00 00       	pushq  $0x4
     f2b:	e9 a0 ff ff ff       	jmpq   ed0 <.plt>

0000000000000f30 <strlen@plt>:
     f30:	ff 25 0a 31 20 00    	jmpq   *0x20310a(%rip)        # 204040 <strlen@GLIBC_2.2.5>
     f36:	68 05 00 00 00       	pushq  $0x5
     f3b:	e9 90 ff ff ff       	jmpq   ed0 <.plt>

0000000000000f40 <htons@plt>:
     f40:	ff 25 02 31 20 00    	jmpq   *0x203102(%rip)        # 204048 <htons@GLIBC_2.2.5>
     f46:	68 06 00 00 00       	pushq  $0x6
     f4b:	e9 80 ff ff ff       	jmpq   ed0 <.plt>

0000000000000f50 <printf@plt>:
     f50:	ff 25 fa 30 20 00    	jmpq   *0x2030fa(%rip)        # 204050 <printf@GLIBC_2.2.5>
     f56:	68 07 00 00 00       	pushq  $0x7
     f5b:	e9 70 ff ff ff       	jmpq   ed0 <.plt>

0000000000000f60 <alarm@plt>:
     f60:	ff 25 f2 30 20 00    	jmpq   *0x2030f2(%rip)        # 204058 <alarm@GLIBC_2.2.5>
     f66:	68 08 00 00 00       	pushq  $0x8
     f6b:	e9 60 ff ff ff       	jmpq   ed0 <.plt>

0000000000000f70 <close@plt>:
     f70:	ff 25 ea 30 20 00    	jmpq   *0x2030ea(%rip)        # 204060 <close@GLIBC_2.2.5>
     f76:	68 09 00 00 00       	pushq  $0x9
     f7b:	e9 50 ff ff ff       	jmpq   ed0 <.plt>

0000000000000f80 <read@plt>:
     f80:	ff 25 e2 30 20 00    	jmpq   *0x2030e2(%rip)        # 204068 <read@GLIBC_2.2.5>
     f86:	68 0a 00 00 00       	pushq  $0xa
     f8b:	e9 40 ff ff ff       	jmpq   ed0 <.plt>

0000000000000f90 <fgets@plt>:
     f90:	ff 25 da 30 20 00    	jmpq   *0x2030da(%rip)        # 204070 <fgets@GLIBC_2.2.5>
     f96:	68 0b 00 00 00       	pushq  $0xb
     f9b:	e9 30 ff ff ff       	jmpq   ed0 <.plt>

0000000000000fa0 <strcmp@plt>:
     fa0:	ff 25 d2 30 20 00    	jmpq   *0x2030d2(%rip)        # 204078 <strcmp@GLIBC_2.2.5>
     fa6:	68 0c 00 00 00       	pushq  $0xc
     fab:	e9 20 ff ff ff       	jmpq   ed0 <.plt>

0000000000000fb0 <signal@plt>:
     fb0:	ff 25 ca 30 20 00    	jmpq   *0x2030ca(%rip)        # 204080 <signal@GLIBC_2.2.5>
     fb6:	68 0d 00 00 00       	pushq  $0xd
     fbb:	e9 10 ff ff ff       	jmpq   ed0 <.plt>

0000000000000fc0 <gethostbyname@plt>:
     fc0:	ff 25 c2 30 20 00    	jmpq   *0x2030c2(%rip)        # 204088 <gethostbyname@GLIBC_2.2.5>
     fc6:	68 0e 00 00 00       	pushq  $0xe
     fcb:	e9 00 ff ff ff       	jmpq   ed0 <.plt>

0000000000000fd0 <fprintf@plt>:
     fd0:	ff 25 ba 30 20 00    	jmpq   *0x2030ba(%rip)        # 204090 <fprintf@GLIBC_2.2.5>
     fd6:	68 0f 00 00 00       	pushq  $0xf
     fdb:	e9 f0 fe ff ff       	jmpq   ed0 <.plt>

0000000000000fe0 <memcpy@plt>:
     fe0:	ff 25 b2 30 20 00    	jmpq   *0x2030b2(%rip)        # 204098 <memcpy@GLIBC_2.14>
     fe6:	68 10 00 00 00       	pushq  $0x10
     feb:	e9 e0 fe ff ff       	jmpq   ed0 <.plt>

0000000000000ff0 <fflush@plt>:
     ff0:	ff 25 aa 30 20 00    	jmpq   *0x2030aa(%rip)        # 2040a0 <fflush@GLIBC_2.2.5>
     ff6:	68 11 00 00 00       	pushq  $0x11
     ffb:	e9 d0 fe ff ff       	jmpq   ed0 <.plt>

0000000000001000 <__isoc99_sscanf@plt>:
    1000:	ff 25 a2 30 20 00    	jmpq   *0x2030a2(%rip)        # 2040a8 <__isoc99_sscanf@GLIBC_2.7>
    1006:	68 12 00 00 00       	pushq  $0x12
    100b:	e9 c0 fe ff ff       	jmpq   ed0 <.plt>

0000000000001010 <bcopy@plt>:
    1010:	ff 25 9a 30 20 00    	jmpq   *0x20309a(%rip)        # 2040b0 <bcopy@GLIBC_2.2.5>
    1016:	68 13 00 00 00       	pushq  $0x13
    101b:	e9 b0 fe ff ff       	jmpq   ed0 <.plt>

0000000000001020 <fopen@plt>:
    1020:	ff 25 92 30 20 00    	jmpq   *0x203092(%rip)        # 2040b8 <fopen@GLIBC_2.2.5>
    1026:	68 14 00 00 00       	pushq  $0x14
    102b:	e9 a0 fe ff ff       	jmpq   ed0 <.plt>

0000000000001030 <bzero@plt>:
    1030:	ff 25 8a 30 20 00    	jmpq   *0x20308a(%rip)        # 2040c0 <bzero@GLIBC_2.2.5>
    1036:	68 15 00 00 00       	pushq  $0x15
    103b:	e9 90 fe ff ff       	jmpq   ed0 <.plt>

0000000000001040 <atoi@plt>:
    1040:	ff 25 82 30 20 00    	jmpq   *0x203082(%rip)        # 2040c8 <atoi@GLIBC_2.2.5>
    1046:	68 16 00 00 00       	pushq  $0x16
    104b:	e9 80 fe ff ff       	jmpq   ed0 <.plt>

0000000000001050 <sprintf@plt>:
    1050:	ff 25 7a 30 20 00    	jmpq   *0x20307a(%rip)        # 2040d0 <sprintf@GLIBC_2.2.5>
    1056:	68 17 00 00 00       	pushq  $0x17
    105b:	e9 70 fe ff ff       	jmpq   ed0 <.plt>

0000000000001060 <exit@plt>:
    1060:	ff 25 72 30 20 00    	jmpq   *0x203072(%rip)        # 2040d8 <exit@GLIBC_2.2.5>
    1066:	68 18 00 00 00       	pushq  $0x18
    106b:	e9 60 fe ff ff       	jmpq   ed0 <.plt>

0000000000001070 <connect@plt>:
    1070:	ff 25 6a 30 20 00    	jmpq   *0x20306a(%rip)        # 2040e0 <connect@GLIBC_2.2.5>
    1076:	68 19 00 00 00       	pushq  $0x19
    107b:	e9 50 fe ff ff       	jmpq   ed0 <.plt>

0000000000001080 <sleep@plt>:
    1080:	ff 25 62 30 20 00    	jmpq   *0x203062(%rip)        # 2040e8 <sleep@GLIBC_2.2.5>
    1086:	68 1a 00 00 00       	pushq  $0x1a
    108b:	e9 40 fe ff ff       	jmpq   ed0 <.plt>

0000000000001090 <__ctype_b_loc@plt>:
    1090:	ff 25 5a 30 20 00    	jmpq   *0x20305a(%rip)        # 2040f0 <__ctype_b_loc@GLIBC_2.3>
    1096:	68 1b 00 00 00       	pushq  $0x1b
    109b:	e9 30 fe ff ff       	jmpq   ed0 <.plt>

00000000000010a0 <socket@plt>:
    10a0:	ff 25 52 30 20 00    	jmpq   *0x203052(%rip)        # 2040f8 <socket@GLIBC_2.2.5>
    10a6:	68 1c 00 00 00       	pushq  $0x1c
    10ab:	e9 20 fe ff ff       	jmpq   ed0 <.plt>

Disassembly of section .plt.got:

00000000000010b0 <.plt.got>:
    10b0:	ff 25 42 2f 20 00    	jmpq   *0x202f42(%rip)        # 203ff8 <__cxa_finalize@GLIBC_2.2.5>
    10b6:	66 90                	xchg   %ax,%ax

Disassembly of section .text:

00000000000010c0 <_start>:
_start():
    10c0:	31 ed                	xor    %ebp,%ebp
    10c2:	49 89 d1             	mov    %rdx,%r9
    10c5:	5e                   	pop    %rsi
    10c6:	48 89 e2             	mov    %rsp,%rdx
    10c9:	48 83 e4 f0          	and    $0xfffffffffffffff0,%rsp
    10cd:	50                   	push   %rax
    10ce:	54                   	push   %rsp
    10cf:	4c 8d 05 1a 1b 00 00 	lea    0x1b1a(%rip),%r8        # 2bf0 <__libc_csu_fini>
    10d6:	48 8d 0d a3 1a 00 00 	lea    0x1aa3(%rip),%rcx        # 2b80 <__libc_csu_init>
    10dd:	48 8d 3d 0c 01 00 00 	lea    0x10c(%rip),%rdi        # 11f0 <main>
    10e4:	ff 15 ee 2e 20 00    	callq  *0x202eee(%rip)        # 203fd8 <__libc_start_main@GLIBC_2.2.5>
    10ea:	f4                   	hlt    
    10eb:	0f 1f 44 00 00       	nopl   0x0(%rax,%rax,1)

00000000000010f0 <deregister_tm_clones>:
deregister_tm_clones():
    10f0:	48 8d 3d c9 36 20 00 	lea    0x2036c9(%rip),%rdi        # 2047c0 <stdout@@GLIBC_2.2.5>
    10f7:	48 8d 05 c9 36 20 00 	lea    0x2036c9(%rip),%rax        # 2047c7 <__TMC_END__+0x7>
    10fe:	55                   	push   %rbp
    10ff:	48 29 f8             	sub    %rdi,%rax
    1102:	48 89 e5             	mov    %rsp,%rbp
    1105:	48 83 f8 0e          	cmp    $0xe,%rax
    1109:	76 15                	jbe    1120 <deregister_tm_clones+0x30>
    110b:	48 8b 05 be 2e 20 00 	mov    0x202ebe(%rip),%rax        # 203fd0 <_ITM_deregisterTMCloneTable>
    1112:	48 85 c0             	test   %rax,%rax
    1115:	74 09                	je     1120 <deregister_tm_clones+0x30>
    1117:	5d                   	pop    %rbp
    1118:	ff e0                	jmpq   *%rax
    111a:	66 0f 1f 44 00 00    	nopw   0x0(%rax,%rax,1)
    1120:	5d                   	pop    %rbp
    1121:	c3                   	retq   
    1122:	0f 1f 40 00          	nopl   0x0(%rax)
    1126:	66 2e 0f 1f 84 00 00 	nopw   %cs:0x0(%rax,%rax,1)
    112d:	00 00 00 

0000000000001130 <register_tm_clones>:
register_tm_clones():
    1130:	48 8d 3d 89 36 20 00 	lea    0x203689(%rip),%rdi        # 2047c0 <stdout@@GLIBC_2.2.5>
    1137:	48 8d 35 82 36 20 00 	lea    0x203682(%rip),%rsi        # 2047c0 <stdout@@GLIBC_2.2.5>
    113e:	55                   	push   %rbp
    113f:	48 29 fe             	sub    %rdi,%rsi
    1142:	48 89 e5             	mov    %rsp,%rbp
    1145:	48 c1 fe 03          	sar    $0x3,%rsi
    1149:	48 89 f0             	mov    %rsi,%rax
    114c:	48 c1 e8 3f          	shr    $0x3f,%rax
    1150:	48 01 c6             	add    %rax,%rsi
    1153:	48 d1 fe             	sar    %rsi
    1156:	74 18                	je     1170 <register_tm_clones+0x40>
    1158:	48 8b 05 91 2e 20 00 	mov    0x202e91(%rip),%rax        # 203ff0 <_ITM_registerTMCloneTable>
    115f:	48 85 c0             	test   %rax,%rax
    1162:	74 0c                	je     1170 <register_tm_clones+0x40>
    1164:	5d                   	pop    %rbp
    1165:	ff e0                	jmpq   *%rax
    1167:	66 0f 1f 84 00 00 00 	nopw   0x0(%rax,%rax,1)
    116e:	00 00 
    1170:	5d                   	pop    %rbp
    1171:	c3                   	retq   
    1172:	0f 1f 40 00          	nopl   0x0(%rax)
    1176:	66 2e 0f 1f 84 00 00 	nopw   %cs:0x0(%rax,%rax,1)
    117d:	00 00 00 

0000000000001180 <__do_global_dtors_aux>:
__do_global_dtors_aux():
    1180:	80 3d 61 36 20 00 00 	cmpb   $0x0,0x203661(%rip)        # 2047e8 <completed.6972>
    1187:	75 27                	jne    11b0 <__do_global_dtors_aux+0x30>
    1189:	48 83 3d 67 2e 20 00 	cmpq   $0x0,0x202e67(%rip)        # 203ff8 <__cxa_finalize@GLIBC_2.2.5>
    1190:	00 
    1191:	55                   	push   %rbp
    1192:	48 89 e5             	mov    %rsp,%rbp
    1195:	74 0c                	je     11a3 <__do_global_dtors_aux+0x23>
    1197:	48 8b 3d 6a 2f 20 00 	mov    0x202f6a(%rip),%rdi        # 204108 <__dso_handle>
    119e:	e8 0d ff ff ff       	callq  10b0 <.plt.got>
    11a3:	e8 48 ff ff ff       	callq  10f0 <deregister_tm_clones>
    11a8:	5d                   	pop    %rbp
    11a9:	c6 05 38 36 20 00 01 	movb   $0x1,0x203638(%rip)        # 2047e8 <completed.6972>
    11b0:	f3 c3                	repz retq 
    11b2:	0f 1f 40 00          	nopl   0x0(%rax)
    11b6:	66 2e 0f 1f 84 00 00 	nopw   %cs:0x0(%rax,%rax,1)
    11bd:	00 00 00 

00000000000011c0 <frame_dummy>:
frame_dummy():
    11c0:	48 8d 3d 21 2c 20 00 	lea    0x202c21(%rip),%rdi        # 203de8 <__JCR_END__>
    11c7:	48 83 3f 00          	cmpq   $0x0,(%rdi)
    11cb:	75 0b                	jne    11d8 <frame_dummy+0x18>
    11cd:	e9 5e ff ff ff       	jmpq   1130 <register_tm_clones>
    11d2:	66 0f 1f 44 00 00    	nopw   0x0(%rax,%rax,1)
    11d8:	48 8b 05 09 2e 20 00 	mov    0x202e09(%rip),%rax        # 203fe8 <_Jv_RegisterClasses>
    11df:	48 85 c0             	test   %rax,%rax
    11e2:	74 e9                	je     11cd <frame_dummy+0xd>
    11e4:	55                   	push   %rbp
    11e5:	48 89 e5             	mov    %rsp,%rbp
    11e8:	ff d0                	callq  *%rax
    11ea:	5d                   	pop    %rbp
    11eb:	e9 40 ff ff ff       	jmpq   1130 <register_tm_clones>

00000000000011f0 <main>:
main():
/home/tbartens/CS220/proj3/src/bomb.c:37
    11f0:	55                   	push   %rbp
    11f1:	48 89 e5             	mov    %rsp,%rbp
    11f4:	48 83 ec 20          	sub    $0x20,%rsp
    11f8:	89 7d ec             	mov    %edi,-0x14(%rbp)
    11fb:	48 89 75 e0          	mov    %rsi,-0x20(%rbp)
/home/tbartens/CS220/proj3/src/bomb.c:45
    11ff:	83 7d ec 01          	cmpl   $0x1,-0x14(%rbp)
    1203:	75 13                	jne    1218 <main+0x28>
/home/tbartens/CS220/proj3/src/bomb.c:46
    1205:	48 8b 05 c4 35 20 00 	mov    0x2035c4(%rip),%rax        # 2047d0 <stdin@@GLIBC_2.2.5>
    120c:	48 89 05 dd 35 20 00 	mov    %rax,0x2035dd(%rip)        # 2047f0 <infile>
    1213:	e9 88 00 00 00       	jmpq   12a0 <main+0xb0>
/home/tbartens/CS220/proj3/src/bomb.c:53
    1218:	83 7d ec 02          	cmpl   $0x2,-0x14(%rbp)
    121c:	75 5d                	jne    127b <main+0x8b>
/home/tbartens/CS220/proj3/src/bomb.c:54
    121e:	48 8b 45 e0          	mov    -0x20(%rbp),%rax
    1222:	48 83 c0 08          	add    $0x8,%rax
    1226:	48 8b 00             	mov    (%rax),%rax
    1229:	48 8d 35 d8 19 00 00 	lea    0x19d8(%rip),%rsi        # 2c08 <_IO_stdin_used+0x8>
    1230:	48 89 c7             	mov    %rax,%rdi
    1233:	e8 e8 fd ff ff       	callq  1020 <fopen@plt>
    1238:	48 89 05 b1 35 20 00 	mov    %rax,0x2035b1(%rip)        # 2047f0 <infile>
    123f:	48 8b 05 aa 35 20 00 	mov    0x2035aa(%rip),%rax        # 2047f0 <infile>
    1246:	48 85 c0             	test   %rax,%rax
    1249:	75 55                	jne    12a0 <main+0xb0>
/home/tbartens/CS220/proj3/src/bomb.c:55
    124b:	48 8b 45 e0          	mov    -0x20(%rbp),%rax
    124f:	48 83 c0 08          	add    $0x8,%rax
    1253:	48 8b 10             	mov    (%rax),%rdx
    1256:	48 8b 45 e0          	mov    -0x20(%rbp),%rax
    125a:	48 8b 00             	mov    (%rax),%rax
    125d:	48 89 c6             	mov    %rax,%rsi
    1260:	48 8d 3d a3 19 00 00 	lea    0x19a3(%rip),%rdi        # 2c0a <_IO_stdin_used+0xa>
    1267:	b8 00 00 00 00       	mov    $0x0,%eax
    126c:	e8 df fc ff ff       	callq  f50 <printf@plt>
/home/tbartens/CS220/proj3/src/bomb.c:56
    1271:	bf 08 00 00 00       	mov    $0x8,%edi
    1276:	e8 e5 fd ff ff       	callq  1060 <exit@plt>
/home/tbartens/CS220/proj3/src/bomb.c:62
    127b:	48 8b 45 e0          	mov    -0x20(%rbp),%rax
    127f:	48 8b 00             	mov    (%rax),%rax
    1282:	48 89 c6             	mov    %rax,%rsi
    1285:	48 8d 3d 9b 19 00 00 	lea    0x199b(%rip),%rdi        # 2c27 <_IO_stdin_used+0x27>
    128c:	b8 00 00 00 00       	mov    $0x0,%eax
    1291:	e8 ba fc ff ff       	callq  f50 <printf@plt>
/home/tbartens/CS220/proj3/src/bomb.c:63
    1296:	bf 08 00 00 00       	mov    $0x8,%edi
    129b:	e8 c0 fd ff ff       	callq  1060 <exit@plt>
/home/tbartens/CS220/proj3/src/bomb.c:67
    12a0:	e8 ba 07 00 00       	callq  1a5f <initialize_bomb>
/home/tbartens/CS220/proj3/src/bomb.c:69
    12a5:	48 8d 3d 9c 19 00 00 	lea    0x199c(%rip),%rdi        # 2c48 <_IO_stdin_used+0x48>
    12ac:	e8 5f fc ff ff       	callq  f10 <puts@plt>
/home/tbartens/CS220/proj3/src/bomb.c:70
    12b1:	48 8d 3d d0 19 00 00 	lea    0x19d0(%rip),%rdi        # 2c88 <_IO_stdin_used+0x88>
    12b8:	e8 53 fc ff ff       	callq  f10 <puts@plt>
/home/tbartens/CS220/proj3/src/bomb.c:73
    12bd:	e8 74 08 00 00       	callq  1b36 <read_line>
    12c2:	48 89 45 f8          	mov    %rax,-0x8(%rbp)
/home/tbartens/CS220/proj3/src/bomb.c:74
    12c6:	48 8b 45 f8          	mov    -0x8(%rbp),%rax
    12ca:	48 89 c7             	mov    %rax,%rdi
    12cd:	e8 ca 00 00 00       	callq  139c <phase_1>
/home/tbartens/CS220/proj3/src/bomb.c:75
    12d2:	e8 04 0a 00 00       	callq  1cdb <phase_defused>
/home/tbartens/CS220/proj3/src/bomb.c:77
    12d7:	48 8d 3d da 19 00 00 	lea    0x19da(%rip),%rdi        # 2cb8 <_IO_stdin_used+0xb8>
    12de:	e8 2d fc ff ff       	callq  f10 <puts@plt>
/home/tbartens/CS220/proj3/src/bomb.c:81
    12e3:	e8 4e 08 00 00       	callq  1b36 <read_line>
    12e8:	48 89 45 f8          	mov    %rax,-0x8(%rbp)
/home/tbartens/CS220/proj3/src/bomb.c:82
    12ec:	48 8b 45 f8          	mov    -0x8(%rbp),%rax
    12f0:	48 89 c7             	mov    %rax,%rdi
    12f3:	e8 cf 00 00 00       	callq  13c7 <phase_2>
/home/tbartens/CS220/proj3/src/bomb.c:83
    12f8:	e8 de 09 00 00       	callq  1cdb <phase_defused>
/home/tbartens/CS220/proj3/src/bomb.c:84
    12fd:	48 8d 3d dd 19 00 00 	lea    0x19dd(%rip),%rdi        # 2ce1 <_IO_stdin_used+0xe1>
    1304:	e8 07 fc ff ff       	callq  f10 <puts@plt>
/home/tbartens/CS220/proj3/src/bomb.c:88
    1309:	e8 28 08 00 00       	callq  1b36 <read_line>
    130e:	48 89 45 f8          	mov    %rax,-0x8(%rbp)
/home/tbartens/CS220/proj3/src/bomb.c:89
    1312:	48 8b 45 f8          	mov    -0x8(%rbp),%rax
    1316:	48 89 c7             	mov    %rax,%rdi
    1319:	e8 0b 01 00 00       	callq  1429 <phase_3>
/home/tbartens/CS220/proj3/src/bomb.c:90
    131e:	e8 b8 09 00 00       	callq  1cdb <phase_defused>
/home/tbartens/CS220/proj3/src/bomb.c:91
    1323:	48 8d 3d d5 19 00 00 	lea    0x19d5(%rip),%rdi        # 2cff <_IO_stdin_used+0xff>
    132a:	e8 e1 fb ff ff       	callq  f10 <puts@plt>
/home/tbartens/CS220/proj3/src/bomb.c:94
    132f:	e8 02 08 00 00       	callq  1b36 <read_line>
    1334:	48 89 45 f8          	mov    %rax,-0x8(%rbp)
/home/tbartens/CS220/proj3/src/bomb.c:95
    1338:	48 8b 45 f8          	mov    -0x8(%rbp),%rax
    133c:	48 89 c7             	mov    %rax,%rdi
    133f:	e8 30 02 00 00       	callq  1574 <phase_4>
/home/tbartens/CS220/proj3/src/bomb.c:96
    1344:	e8 92 09 00 00       	callq  1cdb <phase_defused>
/home/tbartens/CS220/proj3/src/bomb.c:97
    1349:	48 8d 3d c0 19 00 00 	lea    0x19c0(%rip),%rdi        # 2d10 <_IO_stdin_used+0x110>
    1350:	e8 bb fb ff ff       	callq  f10 <puts@plt>
/home/tbartens/CS220/proj3/src/bomb.c:100
    1355:	e8 dc 07 00 00       	callq  1b36 <read_line>
    135a:	48 89 45 f8          	mov    %rax,-0x8(%rbp)
/home/tbartens/CS220/proj3/src/bomb.c:101
    135e:	48 8b 45 f8          	mov    -0x8(%rbp),%rax
    1362:	48 89 c7             	mov    %rax,%rdi
    1365:	e8 89 02 00 00       	callq  15f3 <phase_5>
/home/tbartens/CS220/proj3/src/bomb.c:102
    136a:	e8 6c 09 00 00       	callq  1cdb <phase_defused>
/home/tbartens/CS220/proj3/src/bomb.c:103
    136f:	48 8d 3d be 19 00 00 	lea    0x19be(%rip),%rdi        # 2d34 <_IO_stdin_used+0x134>
    1376:	e8 95 fb ff ff       	callq  f10 <puts@plt>
/home/tbartens/CS220/proj3/src/bomb.c:107
    137b:	e8 b6 07 00 00       	callq  1b36 <read_line>
    1380:	48 89 45 f8          	mov    %rax,-0x8(%rbp)
/home/tbartens/CS220/proj3/src/bomb.c:108
    1384:	48 8b 45 f8          	mov    -0x8(%rbp),%rax
    1388:	48 89 c7             	mov    %rax,%rdi
    138b:	e8 de 02 00 00       	callq  166e <phase_6>
/home/tbartens/CS220/proj3/src/bomb.c:109
    1390:	e8 46 09 00 00       	callq  1cdb <phase_defused>
/home/tbartens/CS220/proj3/src/bomb.c:114
    1395:	b8 00 00 00 00       	mov    $0x0,%eax
/home/tbartens/CS220/proj3/src/bomb.c:115
    139a:	c9                   	leaveq 
    139b:	c3                   	retq   

000000000000139c <phase_1>:
phase_1():
    139c:	55                   	push   %rbp
    139d:	48 89 e5             	mov    %rsp,%rbp
    13a0:	48 83 ec 10          	sub    $0x10,%rsp
    13a4:	48 89 7d f8          	mov    %rdi,-0x8(%rbp)
    13a8:	48 8b 45 f8          	mov    -0x8(%rbp),%rax
    13ac:	48 8d 35 a5 19 00 00 	lea    0x19a5(%rip),%rsi        # 2d58 <_IO_stdin_used+0x158>
    13b3:	48 89 c7             	mov    %rax,%rdi
    13b6:	e8 22 06 00 00       	callq  19dd <strings_not_equal>
    13bb:	85 c0                	test   %eax,%eax
    13bd:	74 05                	je     13c4 <phase_1+0x28>
    13bf:	e8 f1 08 00 00       	callq  1cb5 <explode_bomb>
    13c4:	90                   	nop
    13c5:	c9                   	leaveq 
    13c6:	c3                   	retq   

00000000000013c7 <phase_2>:
phase_2():
    13c7:	55                   	push   %rbp
    13c8:	48 89 e5             	mov    %rsp,%rbp
    13cb:	48 83 ec 30          	sub    $0x30,%rsp
    13cf:	48 89 7d d8          	mov    %rdi,-0x28(%rbp)
    13d3:	48 8d 55 e0          	lea    -0x20(%rbp),%rdx
    13d7:	48 8b 45 d8          	mov    -0x28(%rbp),%rax
    13db:	48 89 d6             	mov    %rdx,%rsi
    13de:	48 89 c7             	mov    %rax,%rdi
    13e1:	e8 5a 05 00 00       	callq  1940 <read_six_numbers>
    13e6:	8b 45 e0             	mov    -0x20(%rbp),%eax
    13e9:	83 f8 01             	cmp    $0x1,%eax
    13ec:	74 05                	je     13f3 <phase_2+0x2c>
    13ee:	e8 c2 08 00 00       	callq  1cb5 <explode_bomb>
    13f3:	c7 45 fc 01 00 00 00 	movl   $0x1,-0x4(%rbp)
    13fa:	eb 24                	jmp    1420 <phase_2+0x59>
    13fc:	8b 45 fc             	mov    -0x4(%rbp),%eax
    13ff:	48 98                	cltq   
    1401:	8b 54 85 e0          	mov    -0x20(%rbp,%rax,4),%edx
    1405:	8b 45 fc             	mov    -0x4(%rbp),%eax
    1408:	83 e8 01             	sub    $0x1,%eax
    140b:	48 98                	cltq   
    140d:	8b 44 85 e0          	mov    -0x20(%rbp,%rax,4),%eax
    1411:	01 c0                	add    %eax,%eax
    1413:	39 c2                	cmp    %eax,%edx
    1415:	74 05                	je     141c <phase_2+0x55>
    1417:	e8 99 08 00 00       	callq  1cb5 <explode_bomb>
    141c:	83 45 fc 01          	addl   $0x1,-0x4(%rbp)
    1420:	83 7d fc 05          	cmpl   $0x5,-0x4(%rbp)
    1424:	7e d6                	jle    13fc <phase_2+0x35>
    1426:	90                   	nop
    1427:	c9                   	leaveq 
    1428:	c3                   	retq   

0000000000001429 <phase_3>:
phase_3():
    1429:	55                   	push   %rbp
    142a:	48 89 e5             	mov    %rsp,%rbp
    142d:	48 83 ec 20          	sub    $0x20,%rsp
    1431:	48 89 7d e8          	mov    %rdi,-0x18(%rbp)
    1435:	c7 45 fc 00 00 00 00 	movl   $0x0,-0x4(%rbp)
    143c:	c7 45 f8 00 00 00 00 	movl   $0x0,-0x8(%rbp)
    1443:	48 8d 4d f0          	lea    -0x10(%rbp),%rcx
    1447:	48 8d 55 f4          	lea    -0xc(%rbp),%rdx
    144b:	48 8b 45 e8          	mov    -0x18(%rbp),%rax
    144f:	48 8d 35 42 19 00 00 	lea    0x1942(%rip),%rsi        # 2d98 <_IO_stdin_used+0x198>
    1456:	48 89 c7             	mov    %rax,%rdi
    1459:	b8 00 00 00 00       	mov    $0x0,%eax
    145e:	e8 9d fb ff ff       	callq  1000 <__isoc99_sscanf@plt>
    1463:	89 45 f8             	mov    %eax,-0x8(%rbp)
    1466:	83 7d f8 01          	cmpl   $0x1,-0x8(%rbp)
    146a:	7f 05                	jg     1471 <phase_3+0x48>
    146c:	e8 44 08 00 00       	callq  1cb5 <explode_bomb>
    1471:	8b 45 f4             	mov    -0xc(%rbp),%eax
    1474:	83 f8 07             	cmp    $0x7,%eax
    1477:	77 6b                	ja     14e4 <phase_3+0xbb>
    1479:	89 c0                	mov    %eax,%eax
    147b:	48 8d 14 85 00 00 00 	lea    0x0(,%rax,4),%rdx
    1482:	00 
    1483:	48 8d 05 16 19 00 00 	lea    0x1916(%rip),%rax        # 2da0 <_IO_stdin_used+0x1a0>
    148a:	8b 04 02             	mov    (%rdx,%rax,1),%eax
    148d:	48 63 d0             	movslq %eax,%rdx
    1490:	48 8d 05 09 19 00 00 	lea    0x1909(%rip),%rax        # 2da0 <_IO_stdin_used+0x1a0>
    1497:	48 01 d0             	add    %rdx,%rax
    149a:	ff e0                	jmpq   *%rax
    149c:	c7 45 fc 64 03 00 00 	movl   $0x364,-0x4(%rbp)
    14a3:	eb 44                	jmp    14e9 <phase_3+0xc0>
    14a5:	c7 45 fc 9d 02 00 00 	movl   $0x29d,-0x4(%rbp)
    14ac:	eb 3b                	jmp    14e9 <phase_3+0xc0>
    14ae:	c7 45 fc ca 03 00 00 	movl   $0x3ca,-0x4(%rbp)
    14b5:	eb 32                	jmp    14e9 <phase_3+0xc0>
    14b7:	c7 45 fc 92 00 00 00 	movl   $0x92,-0x4(%rbp)
    14be:	eb 29                	jmp    14e9 <phase_3+0xc0>
    14c0:	c7 45 fc e8 01 00 00 	movl   $0x1e8,-0x4(%rbp)
    14c7:	eb 20                	jmp    14e9 <phase_3+0xc0>
    14c9:	c7 45 fc e1 03 00 00 	movl   $0x3e1,-0x4(%rbp)
    14d0:	eb 17                	jmp    14e9 <phase_3+0xc0>
    14d2:	c7 45 fc cd 00 00 00 	movl   $0xcd,-0x4(%rbp)
    14d9:	eb 0e                	jmp    14e9 <phase_3+0xc0>
    14db:	c7 45 fc 7c 02 00 00 	movl   $0x27c,-0x4(%rbp)
    14e2:	eb 05                	jmp    14e9 <phase_3+0xc0>
    14e4:	e8 cc 07 00 00       	callq  1cb5 <explode_bomb>
    14e9:	8b 45 f0             	mov    -0x10(%rbp),%eax
    14ec:	39 45 fc             	cmp    %eax,-0x4(%rbp)
    14ef:	74 05                	je     14f6 <phase_3+0xcd>
    14f1:	e8 bf 07 00 00       	callq  1cb5 <explode_bomb>
    14f6:	90                   	nop
    14f7:	c9                   	leaveq 
    14f8:	c3                   	retq   

00000000000014f9 <func4>:
func4():
    14f9:	55                   	push   %rbp
    14fa:	48 89 e5             	mov    %rsp,%rbp
    14fd:	48 83 ec 20          	sub    $0x20,%rsp
    1501:	89 7d ec             	mov    %edi,-0x14(%rbp)
    1504:	89 75 e8             	mov    %esi,-0x18(%rbp)
    1507:	89 55 e4             	mov    %edx,-0x1c(%rbp)
    150a:	8b 45 e4             	mov    -0x1c(%rbp),%eax
    150d:	2b 45 e8             	sub    -0x18(%rbp),%eax
    1510:	89 c2                	mov    %eax,%edx
    1512:	c1 ea 1f             	shr    $0x1f,%edx
    1515:	01 d0                	add    %edx,%eax
    1517:	d1 f8                	sar    %eax
    1519:	89 c2                	mov    %eax,%edx
    151b:	8b 45 e8             	mov    -0x18(%rbp),%eax
    151e:	01 d0                	add    %edx,%eax
    1520:	89 45 fc             	mov    %eax,-0x4(%rbp)
    1523:	8b 45 fc             	mov    -0x4(%rbp),%eax
    1526:	3b 45 ec             	cmp    -0x14(%rbp),%eax
    1529:	7e 1e                	jle    1549 <func4+0x50>
    152b:	8b 45 fc             	mov    -0x4(%rbp),%eax
    152e:	8d 50 ff             	lea    -0x1(%rax),%edx
    1531:	8b 4d e8             	mov    -0x18(%rbp),%ecx
    1534:	8b 45 ec             	mov    -0x14(%rbp),%eax
    1537:	89 ce                	mov    %ecx,%esi
    1539:	89 c7                	mov    %eax,%edi
    153b:	e8 b9 ff ff ff       	callq  14f9 <func4>
    1540:	89 c2                	mov    %eax,%edx
    1542:	8b 45 fc             	mov    -0x4(%rbp),%eax
    1545:	01 d0                	add    %edx,%eax
    1547:	eb 29                	jmp    1572 <func4+0x79>
    1549:	8b 45 fc             	mov    -0x4(%rbp),%eax
    154c:	3b 45 ec             	cmp    -0x14(%rbp),%eax
    154f:	7d 1e                	jge    156f <func4+0x76>
    1551:	8b 45 fc             	mov    -0x4(%rbp),%eax
    1554:	8d 48 01             	lea    0x1(%rax),%ecx
    1557:	8b 55 e4             	mov    -0x1c(%rbp),%edx
    155a:	8b 45 ec             	mov    -0x14(%rbp),%eax
    155d:	89 ce                	mov    %ecx,%esi
    155f:	89 c7                	mov    %eax,%edi
    1561:	e8 93 ff ff ff       	callq  14f9 <func4>
    1566:	89 c2                	mov    %eax,%edx
    1568:	8b 45 fc             	mov    -0x4(%rbp),%eax
    156b:	01 d0                	add    %edx,%eax
    156d:	eb 03                	jmp    1572 <func4+0x79>
    156f:	8b 45 fc             	mov    -0x4(%rbp),%eax
    1572:	c9                   	leaveq 
    1573:	c3                   	retq   

0000000000001574 <phase_4>:
phase_4():
    1574:	55                   	push   %rbp
    1575:	48 89 e5             	mov    %rsp,%rbp
    1578:	48 83 ec 30          	sub    $0x30,%rsp
    157c:	48 89 7d d8          	mov    %rdi,-0x28(%rbp)
    1580:	48 8d 4d ec          	lea    -0x14(%rbp),%rcx
    1584:	48 8d 55 f0          	lea    -0x10(%rbp),%rdx
    1588:	48 8b 45 d8          	mov    -0x28(%rbp),%rax
    158c:	48 8d 35 05 18 00 00 	lea    0x1805(%rip),%rsi        # 2d98 <_IO_stdin_used+0x198>
    1593:	48 89 c7             	mov    %rax,%rdi
    1596:	b8 00 00 00 00       	mov    $0x0,%eax
    159b:	e8 60 fa ff ff       	callq  1000 <__isoc99_sscanf@plt>
    15a0:	89 45 fc             	mov    %eax,-0x4(%rbp)
    15a3:	83 7d fc 02          	cmpl   $0x2,-0x4(%rbp)
    15a7:	75 0f                	jne    15b8 <phase_4+0x44>
    15a9:	8b 45 f0             	mov    -0x10(%rbp),%eax
    15ac:	85 c0                	test   %eax,%eax
    15ae:	78 08                	js     15b8 <phase_4+0x44>
    15b0:	8b 45 f0             	mov    -0x10(%rbp),%eax
    15b3:	83 f8 0e             	cmp    $0xe,%eax
    15b6:	7e 05                	jle    15bd <phase_4+0x49>
    15b8:	e8 f8 06 00 00       	callq  1cb5 <explode_bomb>
    15bd:	c7 45 f8 0b 00 00 00 	movl   $0xb,-0x8(%rbp)
    15c4:	8b 45 f0             	mov    -0x10(%rbp),%eax
    15c7:	ba 0e 00 00 00       	mov    $0xe,%edx
    15cc:	be 00 00 00 00       	mov    $0x0,%esi
    15d1:	89 c7                	mov    %eax,%edi
    15d3:	e8 21 ff ff ff       	callq  14f9 <func4>
    15d8:	89 45 f4             	mov    %eax,-0xc(%rbp)
    15db:	8b 45 f4             	mov    -0xc(%rbp),%eax
    15de:	3b 45 f8             	cmp    -0x8(%rbp),%eax
    15e1:	75 08                	jne    15eb <phase_4+0x77>
    15e3:	8b 45 ec             	mov    -0x14(%rbp),%eax
    15e6:	3b 45 f8             	cmp    -0x8(%rbp),%eax
    15e9:	74 05                	je     15f0 <phase_4+0x7c>
    15eb:	e8 c5 06 00 00       	callq  1cb5 <explode_bomb>
    15f0:	90                   	nop
    15f1:	c9                   	leaveq 
    15f2:	c3                   	retq   

00000000000015f3 <phase_5>:
phase_5():
    15f3:	55                   	push   %rbp
    15f4:	48 89 e5             	mov    %rsp,%rbp
    15f7:	48 83 ec 20          	sub    $0x20,%rsp
    15fb:	48 89 7d e8          	mov    %rdi,-0x18(%rbp)
    15ff:	48 8b 45 e8          	mov    -0x18(%rbp),%rax
    1603:	48 89 c7             	mov    %rax,%rdi
    1606:	e8 a0 03 00 00       	callq  19ab <string_length>
    160b:	89 45 f4             	mov    %eax,-0xc(%rbp)
    160e:	83 7d f4 06          	cmpl   $0x6,-0xc(%rbp)
    1612:	74 05                	je     1619 <phase_5+0x26>
    1614:	e8 9c 06 00 00       	callq  1cb5 <explode_bomb>
    1619:	c7 45 f8 00 00 00 00 	movl   $0x0,-0x8(%rbp)
    1620:	c7 45 fc 00 00 00 00 	movl   $0x0,-0x4(%rbp)
    1627:	eb 31                	jmp    165a <phase_5+0x67>
    1629:	8b 45 fc             	mov    -0x4(%rbp),%eax
    162c:	48 63 d0             	movslq %eax,%rdx
    162f:	48 8b 45 e8          	mov    -0x18(%rbp),%rax
    1633:	48 01 d0             	add    %rdx,%rax
    1636:	0f b6 00             	movzbl (%rax),%eax
    1639:	0f be c0             	movsbl %al,%eax
    163c:	83 e0 0f             	and    $0xf,%eax
    163f:	48 98                	cltq   
    1641:	48 8d 14 85 00 00 00 	lea    0x0(,%rax,4),%rdx
    1648:	00 
    1649:	48 8d 05 f0 2b 20 00 	lea    0x202bf0(%rip),%rax        # 204240 <array.2958>
    1650:	8b 04 02             	mov    (%rdx,%rax,1),%eax
    1653:	01 45 f8             	add    %eax,-0x8(%rbp)
    1656:	83 45 fc 01          	addl   $0x1,-0x4(%rbp)
    165a:	83 7d fc 05          	cmpl   $0x5,-0x4(%rbp)
    165e:	7e c9                	jle    1629 <phase_5+0x36>
    1660:	83 7d f8 2c          	cmpl   $0x2c,-0x8(%rbp)
    1664:	74 05                	je     166b <phase_5+0x78>
    1666:	e8 4a 06 00 00       	callq  1cb5 <explode_bomb>
    166b:	90                   	nop
    166c:	c9                   	leaveq 
    166d:	c3                   	retq   

000000000000166e <phase_6>:
phase_6():
    166e:	55                   	push   %rbp
    166f:	48 89 e5             	mov    %rsp,%rbp
    1672:	48 83 ec 70          	sub    $0x70,%rsp
    1676:	48 89 7d 98          	mov    %rdi,-0x68(%rbp)
    167a:	48 8d 05 3f 2c 20 00 	lea    0x202c3f(%rip),%rax        # 2042c0 <node1>
    1681:	48 89 45 e8          	mov    %rax,-0x18(%rbp)
    1685:	48 8d 55 d0          	lea    -0x30(%rbp),%rdx
    1689:	48 8b 45 98          	mov    -0x68(%rbp),%rax
    168d:	48 89 d6             	mov    %rdx,%rsi
    1690:	48 89 c7             	mov    %rax,%rdi
    1693:	e8 a8 02 00 00       	callq  1940 <read_six_numbers>
    1698:	c7 45 f4 00 00 00 00 	movl   $0x0,-0xc(%rbp)
    169f:	eb 54                	jmp    16f5 <phase_6+0x87>
    16a1:	8b 45 f4             	mov    -0xc(%rbp),%eax
    16a4:	48 98                	cltq   
    16a6:	8b 44 85 d0          	mov    -0x30(%rbp,%rax,4),%eax
    16aa:	85 c0                	test   %eax,%eax
    16ac:	7e 0e                	jle    16bc <phase_6+0x4e>
    16ae:	8b 45 f4             	mov    -0xc(%rbp),%eax
    16b1:	48 98                	cltq   
    16b3:	8b 44 85 d0          	mov    -0x30(%rbp,%rax,4),%eax
    16b7:	83 f8 06             	cmp    $0x6,%eax
    16ba:	7e 05                	jle    16c1 <phase_6+0x53>
    16bc:	e8 f4 05 00 00       	callq  1cb5 <explode_bomb>
    16c1:	8b 45 f4             	mov    -0xc(%rbp),%eax
    16c4:	83 c0 01             	add    $0x1,%eax
    16c7:	89 45 f0             	mov    %eax,-0x10(%rbp)
    16ca:	eb 1f                	jmp    16eb <phase_6+0x7d>
    16cc:	8b 45 f4             	mov    -0xc(%rbp),%eax
    16cf:	48 98                	cltq   
    16d1:	8b 54 85 d0          	mov    -0x30(%rbp,%rax,4),%edx
    16d5:	8b 45 f0             	mov    -0x10(%rbp),%eax
    16d8:	48 98                	cltq   
    16da:	8b 44 85 d0          	mov    -0x30(%rbp,%rax,4),%eax
    16de:	39 c2                	cmp    %eax,%edx
    16e0:	75 05                	jne    16e7 <phase_6+0x79>
    16e2:	e8 ce 05 00 00       	callq  1cb5 <explode_bomb>
    16e7:	83 45 f0 01          	addl   $0x1,-0x10(%rbp)
    16eb:	83 7d f0 05          	cmpl   $0x5,-0x10(%rbp)
    16ef:	7e db                	jle    16cc <phase_6+0x5e>
    16f1:	83 45 f4 01          	addl   $0x1,-0xc(%rbp)
    16f5:	83 7d f4 05          	cmpl   $0x5,-0xc(%rbp)
    16f9:	7e a6                	jle    16a1 <phase_6+0x33>
    16fb:	c7 45 f4 00 00 00 00 	movl   $0x0,-0xc(%rbp)
    1702:	eb 41                	jmp    1745 <phase_6+0xd7>
    1704:	48 8b 45 e8          	mov    -0x18(%rbp),%rax
    1708:	48 89 45 f8          	mov    %rax,-0x8(%rbp)
    170c:	c7 45 f0 01 00 00 00 	movl   $0x1,-0x10(%rbp)
    1713:	eb 10                	jmp    1725 <phase_6+0xb7>
    1715:	48 8b 45 f8          	mov    -0x8(%rbp),%rax
    1719:	48 8b 40 08          	mov    0x8(%rax),%rax
    171d:	48 89 45 f8          	mov    %rax,-0x8(%rbp)
    1721:	83 45 f0 01          	addl   $0x1,-0x10(%rbp)
    1725:	8b 45 f4             	mov    -0xc(%rbp),%eax
    1728:	48 98                	cltq   
    172a:	8b 44 85 d0          	mov    -0x30(%rbp,%rax,4),%eax
    172e:	3b 45 f0             	cmp    -0x10(%rbp),%eax
    1731:	7f e2                	jg     1715 <phase_6+0xa7>
    1733:	8b 45 f4             	mov    -0xc(%rbp),%eax
    1736:	48 98                	cltq   
    1738:	48 8b 55 f8          	mov    -0x8(%rbp),%rdx
    173c:	48 89 54 c5 a0       	mov    %rdx,-0x60(%rbp,%rax,8)
    1741:	83 45 f4 01          	addl   $0x1,-0xc(%rbp)
    1745:	83 7d f4 05          	cmpl   $0x5,-0xc(%rbp)
    1749:	7e b9                	jle    1704 <phase_6+0x96>
    174b:	48 8b 45 a0          	mov    -0x60(%rbp),%rax
    174f:	48 89 45 e8          	mov    %rax,-0x18(%rbp)
    1753:	48 8b 45 e8          	mov    -0x18(%rbp),%rax
    1757:	48 89 45 f8          	mov    %rax,-0x8(%rbp)
    175b:	c7 45 f4 01 00 00 00 	movl   $0x1,-0xc(%rbp)
    1762:	eb 22                	jmp    1786 <phase_6+0x118>
    1764:	8b 45 f4             	mov    -0xc(%rbp),%eax
    1767:	48 98                	cltq   
    1769:	48 8b 54 c5 a0       	mov    -0x60(%rbp,%rax,8),%rdx
    176e:	48 8b 45 f8          	mov    -0x8(%rbp),%rax
    1772:	48 89 50 08          	mov    %rdx,0x8(%rax)
    1776:	48 8b 45 f8          	mov    -0x8(%rbp),%rax
    177a:	48 8b 40 08          	mov    0x8(%rax),%rax
    177e:	48 89 45 f8          	mov    %rax,-0x8(%rbp)
    1782:	83 45 f4 01          	addl   $0x1,-0xc(%rbp)
    1786:	83 7d f4 05          	cmpl   $0x5,-0xc(%rbp)
    178a:	7e d8                	jle    1764 <phase_6+0xf6>
    178c:	48 8b 45 f8          	mov    -0x8(%rbp),%rax
    1790:	48 c7 40 08 00 00 00 	movq   $0x0,0x8(%rax)
    1797:	00 
    1798:	48 8b 45 e8          	mov    -0x18(%rbp),%rax
    179c:	48 89 45 f8          	mov    %rax,-0x8(%rbp)
    17a0:	c7 45 f4 00 00 00 00 	movl   $0x0,-0xc(%rbp)
    17a7:	eb 29                	jmp    17d2 <phase_6+0x164>
    17a9:	48 8b 45 f8          	mov    -0x8(%rbp),%rax
    17ad:	8b 10                	mov    (%rax),%edx
    17af:	48 8b 45 f8          	mov    -0x8(%rbp),%rax
    17b3:	48 8b 40 08          	mov    0x8(%rax),%rax
    17b7:	8b 00                	mov    (%rax),%eax
    17b9:	39 c2                	cmp    %eax,%edx
    17bb:	7d 05                	jge    17c2 <phase_6+0x154>
    17bd:	e8 f3 04 00 00       	callq  1cb5 <explode_bomb>
    17c2:	48 8b 45 f8          	mov    -0x8(%rbp),%rax
    17c6:	48 8b 40 08          	mov    0x8(%rax),%rax
    17ca:	48 89 45 f8          	mov    %rax,-0x8(%rbp)
    17ce:	83 45 f4 01          	addl   $0x1,-0xc(%rbp)
    17d2:	83 7d f4 04          	cmpl   $0x4,-0xc(%rbp)
    17d6:	7e d1                	jle    17a9 <phase_6+0x13b>
    17d8:	90                   	nop
    17d9:	c9                   	leaveq 
    17da:	c3                   	retq   

00000000000017db <fun7>:
fun7():
    17db:	55                   	push   %rbp
    17dc:	48 89 e5             	mov    %rsp,%rbp
    17df:	48 83 ec 10          	sub    $0x10,%rsp
    17e3:	48 89 7d f8          	mov    %rdi,-0x8(%rbp)
    17e7:	89 75 f4             	mov    %esi,-0xc(%rbp)
    17ea:	48 83 7d f8 00       	cmpq   $0x0,-0x8(%rbp)
    17ef:	75 07                	jne    17f8 <fun7+0x1d>
    17f1:	b8 ff ff ff ff       	mov    $0xffffffff,%eax
    17f6:	eb 50                	jmp    1848 <fun7+0x6d>
    17f8:	48 8b 45 f8          	mov    -0x8(%rbp),%rax
    17fc:	8b 00                	mov    (%rax),%eax
    17fe:	3b 45 f4             	cmp    -0xc(%rbp),%eax
    1801:	7e 19                	jle    181c <fun7+0x41>
    1803:	48 8b 45 f8          	mov    -0x8(%rbp),%rax
    1807:	48 8b 40 08          	mov    0x8(%rax),%rax
    180b:	8b 55 f4             	mov    -0xc(%rbp),%edx
    180e:	89 d6                	mov    %edx,%esi
    1810:	48 89 c7             	mov    %rax,%rdi
    1813:	e8 c3 ff ff ff       	callq  17db <fun7>
    1818:	01 c0                	add    %eax,%eax
    181a:	eb 2c                	jmp    1848 <fun7+0x6d>
    181c:	48 8b 45 f8          	mov    -0x8(%rbp),%rax
    1820:	8b 00                	mov    (%rax),%eax
    1822:	3b 45 f4             	cmp    -0xc(%rbp),%eax
    1825:	75 07                	jne    182e <fun7+0x53>
    1827:	b8 00 00 00 00       	mov    $0x0,%eax
    182c:	eb 1a                	jmp    1848 <fun7+0x6d>
    182e:	48 8b 45 f8          	mov    -0x8(%rbp),%rax
    1832:	48 8b 40 10          	mov    0x10(%rax),%rax
    1836:	8b 55 f4             	mov    -0xc(%rbp),%edx
    1839:	89 d6                	mov    %edx,%esi
    183b:	48 89 c7             	mov    %rax,%rdi
    183e:	e8 98 ff ff ff       	callq  17db <fun7>
    1843:	01 c0                	add    %eax,%eax
    1845:	83 c0 01             	add    $0x1,%eax
    1848:	c9                   	leaveq 
    1849:	c3                   	retq   

000000000000184a <secret_phase>:
secret_phase():
    184a:	55                   	push   %rbp
    184b:	48 89 e5             	mov    %rsp,%rbp
    184e:	48 83 ec 10          	sub    $0x10,%rsp
    1852:	e8 df 02 00 00       	callq  1b36 <read_line>
    1857:	48 89 45 f8          	mov    %rax,-0x8(%rbp)
    185b:	48 8b 45 f8          	mov    -0x8(%rbp),%rax
    185f:	48 89 c7             	mov    %rax,%rdi
    1862:	e8 d9 f7 ff ff       	callq  1040 <atoi@plt>
    1867:	89 45 f4             	mov    %eax,-0xc(%rbp)
    186a:	83 7d f4 00          	cmpl   $0x0,-0xc(%rbp)
    186e:	7e 09                	jle    1879 <secret_phase+0x2f>
    1870:	81 7d f4 e9 03 00 00 	cmpl   $0x3e9,-0xc(%rbp)
    1877:	7e 05                	jle    187e <secret_phase+0x34>
    1879:	e8 37 04 00 00       	callq  1cb5 <explode_bomb>
    187e:	8b 45 f4             	mov    -0xc(%rbp),%eax
    1881:	89 c6                	mov    %eax,%esi
    1883:	48 8d 3d 06 2b 20 00 	lea    0x202b06(%rip),%rdi        # 204390 <n1>
    188a:	e8 4c ff ff ff       	callq  17db <fun7>
    188f:	89 45 f0             	mov    %eax,-0x10(%rbp)
    1892:	83 7d f0 01          	cmpl   $0x1,-0x10(%rbp)
    1896:	74 05                	je     189d <secret_phase+0x53>
    1898:	e8 18 04 00 00       	callq  1cb5 <explode_bomb>
    189d:	48 8d 3d 1c 15 00 00 	lea    0x151c(%rip),%rdi        # 2dc0 <_IO_stdin_used+0x1c0>
    18a4:	e8 67 f6 ff ff       	callq  f10 <puts@plt>
    18a9:	e8 2d 04 00 00       	callq  1cdb <phase_defused>
    18ae:	90                   	nop
    18af:	c9                   	leaveq 
    18b0:	c3                   	retq   

00000000000018b1 <sig_handler>:
sig_handler():
    18b1:	55                   	push   %rbp
    18b2:	48 89 e5             	mov    %rsp,%rbp
    18b5:	48 83 ec 10          	sub    $0x10,%rsp
    18b9:	89 7d fc             	mov    %edi,-0x4(%rbp)
    18bc:	48 8d 3d 85 15 00 00 	lea    0x1585(%rip),%rdi        # 2e48 <_IO_stdin_used+0x248>
    18c3:	e8 48 f6 ff ff       	callq  f10 <puts@plt>
    18c8:	bf 03 00 00 00       	mov    $0x3,%edi
    18cd:	e8 ae f7 ff ff       	callq  1080 <sleep@plt>
    18d2:	48 8d 3d a7 15 00 00 	lea    0x15a7(%rip),%rdi        # 2e80 <_IO_stdin_used+0x280>
    18d9:	b8 00 00 00 00       	mov    $0x0,%eax
    18de:	e8 6d f6 ff ff       	callq  f50 <printf@plt>
    18e3:	48 8b 05 d6 2e 20 00 	mov    0x202ed6(%rip),%rax        # 2047c0 <stdout@@GLIBC_2.2.5>
    18ea:	48 89 c7             	mov    %rax,%rdi
    18ed:	e8 fe f6 ff ff       	callq  ff0 <fflush@plt>
    18f2:	bf 01 00 00 00       	mov    $0x1,%edi
    18f7:	e8 84 f7 ff ff       	callq  1080 <sleep@plt>
    18fc:	48 8d 3d 85 15 00 00 	lea    0x1585(%rip),%rdi        # 2e88 <_IO_stdin_used+0x288>
    1903:	e8 08 f6 ff ff       	callq  f10 <puts@plt>
    1908:	bf 10 00 00 00       	mov    $0x10,%edi
    190d:	e8 4e f7 ff ff       	callq  1060 <exit@plt>

0000000000001912 <invalid_phase>:
invalid_phase():
    1912:	55                   	push   %rbp
    1913:	48 89 e5             	mov    %rsp,%rbp
    1916:	48 83 ec 10          	sub    $0x10,%rsp
    191a:	48 89 7d f8          	mov    %rdi,-0x8(%rbp)
    191e:	48 8b 45 f8          	mov    -0x8(%rbp),%rax
    1922:	48 89 c6             	mov    %rax,%rsi
    1925:	48 8d 3d 64 15 00 00 	lea    0x1564(%rip),%rdi        # 2e90 <_IO_stdin_used+0x290>
    192c:	b8 00 00 00 00       	mov    $0x0,%eax
    1931:	e8 1a f6 ff ff       	callq  f50 <printf@plt>
    1936:	bf 08 00 00 00       	mov    $0x8,%edi
    193b:	e8 20 f7 ff ff       	callq  1060 <exit@plt>

0000000000001940 <read_six_numbers>:
read_six_numbers():
    1940:	55                   	push   %rbp
    1941:	48 89 e5             	mov    %rsp,%rbp
    1944:	48 83 ec 20          	sub    $0x20,%rsp
    1948:	48 89 7d e8          	mov    %rdi,-0x18(%rbp)
    194c:	48 89 75 e0          	mov    %rsi,-0x20(%rbp)
    1950:	48 8b 45 e0          	mov    -0x20(%rbp),%rax
    1954:	48 8d 78 14          	lea    0x14(%rax),%rdi
    1958:	48 8b 45 e0          	mov    -0x20(%rbp),%rax
    195c:	48 8d 70 10          	lea    0x10(%rax),%rsi
    1960:	48 8b 45 e0          	mov    -0x20(%rbp),%rax
    1964:	4c 8d 48 0c          	lea    0xc(%rax),%r9
    1968:	48 8b 45 e0          	mov    -0x20(%rbp),%rax
    196c:	4c 8d 40 08          	lea    0x8(%rax),%r8
    1970:	48 8b 45 e0          	mov    -0x20(%rbp),%rax
    1974:	48 8d 48 04          	lea    0x4(%rax),%rcx
    1978:	48 8b 55 e0          	mov    -0x20(%rbp),%rdx
    197c:	48 8b 45 e8          	mov    -0x18(%rbp),%rax
    1980:	57                   	push   %rdi
    1981:	56                   	push   %rsi
    1982:	48 8d 35 18 15 00 00 	lea    0x1518(%rip),%rsi        # 2ea1 <_IO_stdin_used+0x2a1>
    1989:	48 89 c7             	mov    %rax,%rdi
    198c:	b8 00 00 00 00       	mov    $0x0,%eax
    1991:	e8 6a f6 ff ff       	callq  1000 <__isoc99_sscanf@plt>
    1996:	48 83 c4 10          	add    $0x10,%rsp
    199a:	89 45 fc             	mov    %eax,-0x4(%rbp)
    199d:	83 7d fc 05          	cmpl   $0x5,-0x4(%rbp)
    19a1:	7f 05                	jg     19a8 <read_six_numbers+0x68>
    19a3:	e8 0d 03 00 00       	callq  1cb5 <explode_bomb>
    19a8:	90                   	nop
    19a9:	c9                   	leaveq 
    19aa:	c3                   	retq   

00000000000019ab <string_length>:
string_length():
    19ab:	55                   	push   %rbp
    19ac:	48 89 e5             	mov    %rsp,%rbp
    19af:	48 89 7d e8          	mov    %rdi,-0x18(%rbp)
    19b3:	48 8b 45 e8          	mov    -0x18(%rbp),%rax
    19b7:	48 89 45 f0          	mov    %rax,-0x10(%rbp)
    19bb:	c7 45 fc 00 00 00 00 	movl   $0x0,-0x4(%rbp)
    19c2:	eb 09                	jmp    19cd <string_length+0x22>
    19c4:	48 83 45 f0 01       	addq   $0x1,-0x10(%rbp)
    19c9:	83 45 fc 01          	addl   $0x1,-0x4(%rbp)
    19cd:	48 8b 45 f0          	mov    -0x10(%rbp),%rax
    19d1:	0f b6 00             	movzbl (%rax),%eax
    19d4:	84 c0                	test   %al,%al
    19d6:	75 ec                	jne    19c4 <string_length+0x19>
    19d8:	8b 45 fc             	mov    -0x4(%rbp),%eax
    19db:	5d                   	pop    %rbp
    19dc:	c3                   	retq   

00000000000019dd <strings_not_equal>:
strings_not_equal():
    19dd:	55                   	push   %rbp
    19de:	48 89 e5             	mov    %rsp,%rbp
    19e1:	53                   	push   %rbx
    19e2:	48 83 ec 20          	sub    $0x20,%rsp
    19e6:	48 89 7d e0          	mov    %rdi,-0x20(%rbp)
    19ea:	48 89 75 d8          	mov    %rsi,-0x28(%rbp)
    19ee:	48 8b 45 e0          	mov    -0x20(%rbp),%rax
    19f2:	48 89 c7             	mov    %rax,%rdi
    19f5:	e8 b1 ff ff ff       	callq  19ab <string_length>
    19fa:	89 c3                	mov    %eax,%ebx
    19fc:	48 8b 45 d8          	mov    -0x28(%rbp),%rax
    1a00:	48 89 c7             	mov    %rax,%rdi
    1a03:	e8 a3 ff ff ff       	callq  19ab <string_length>
    1a08:	39 c3                	cmp    %eax,%ebx
    1a0a:	74 07                	je     1a13 <strings_not_equal+0x36>
    1a0c:	b8 01 00 00 00       	mov    $0x1,%eax
    1a11:	eb 45                	jmp    1a58 <strings_not_equal+0x7b>
    1a13:	48 8b 45 e0          	mov    -0x20(%rbp),%rax
    1a17:	48 89 45 f0          	mov    %rax,-0x10(%rbp)
    1a1b:	48 8b 45 d8          	mov    -0x28(%rbp),%rax
    1a1f:	48 89 45 e8          	mov    %rax,-0x18(%rbp)
    1a23:	eb 23                	jmp    1a48 <strings_not_equal+0x6b>
    1a25:	48 8b 45 f0          	mov    -0x10(%rbp),%rax
    1a29:	0f b6 10             	movzbl (%rax),%edx
    1a2c:	48 8b 45 e8          	mov    -0x18(%rbp),%rax
    1a30:	0f b6 00             	movzbl (%rax),%eax
    1a33:	38 c2                	cmp    %al,%dl
    1a35:	74 07                	je     1a3e <strings_not_equal+0x61>
    1a37:	b8 01 00 00 00       	mov    $0x1,%eax
    1a3c:	eb 1a                	jmp    1a58 <strings_not_equal+0x7b>
    1a3e:	48 83 45 f0 01       	addq   $0x1,-0x10(%rbp)
    1a43:	48 83 45 e8 01       	addq   $0x1,-0x18(%rbp)
    1a48:	48 8b 45 f0          	mov    -0x10(%rbp),%rax
    1a4c:	0f b6 00             	movzbl (%rax),%eax
    1a4f:	84 c0                	test   %al,%al
    1a51:	75 d2                	jne    1a25 <strings_not_equal+0x48>
    1a53:	b8 00 00 00 00       	mov    $0x0,%eax
    1a58:	48 83 c4 20          	add    $0x20,%rsp
    1a5c:	5b                   	pop    %rbx
    1a5d:	5d                   	pop    %rbp
    1a5e:	c3                   	retq   

0000000000001a5f <initialize_bomb>:
initialize_bomb():
    1a5f:	55                   	push   %rbp
    1a60:	48 89 e5             	mov    %rsp,%rbp
    1a63:	48 8d 35 47 fe ff ff 	lea    -0x1b9(%rip),%rsi        # 18b1 <sig_handler>
    1a6a:	bf 02 00 00 00       	mov    $0x2,%edi
    1a6f:	e8 3c f5 ff ff       	callq  fb0 <signal@plt>
    1a74:	90                   	nop
    1a75:	5d                   	pop    %rbp
    1a76:	c3                   	retq   

0000000000001a77 <initialize_bomb_solve>:
initialize_bomb_solve():
    1a77:	55                   	push   %rbp
    1a78:	48 89 e5             	mov    %rsp,%rbp
    1a7b:	90                   	nop
    1a7c:	5d                   	pop    %rbp
    1a7d:	c3                   	retq   

0000000000001a7e <blank_line>:
blank_line():
    1a7e:	55                   	push   %rbp
    1a7f:	48 89 e5             	mov    %rsp,%rbp
    1a82:	48 83 ec 10          	sub    $0x10,%rsp
    1a86:	48 89 7d f8          	mov    %rdi,-0x8(%rbp)
    1a8a:	eb 37                	jmp    1ac3 <blank_line+0x45>
    1a8c:	e8 ff f5 ff ff       	callq  1090 <__ctype_b_loc@plt>
    1a91:	48 8b 08             	mov    (%rax),%rcx
    1a94:	48 8b 45 f8          	mov    -0x8(%rbp),%rax
    1a98:	48 8d 50 01          	lea    0x1(%rax),%rdx
    1a9c:	48 89 55 f8          	mov    %rdx,-0x8(%rbp)
    1aa0:	0f b6 00             	movzbl (%rax),%eax
    1aa3:	48 0f be c0          	movsbq %al,%rax
    1aa7:	48 01 c0             	add    %rax,%rax
    1aaa:	48 01 c8             	add    %rcx,%rax
    1aad:	0f b7 00             	movzwl (%rax),%eax
    1ab0:	0f b7 c0             	movzwl %ax,%eax
    1ab3:	25 00 20 00 00       	and    $0x2000,%eax
    1ab8:	85 c0                	test   %eax,%eax
    1aba:	75 07                	jne    1ac3 <blank_line+0x45>
    1abc:	b8 00 00 00 00       	mov    $0x0,%eax
    1ac1:	eb 10                	jmp    1ad3 <blank_line+0x55>
    1ac3:	48 8b 45 f8          	mov    -0x8(%rbp),%rax
    1ac7:	0f b6 00             	movzbl (%rax),%eax
    1aca:	84 c0                	test   %al,%al
    1acc:	75 be                	jne    1a8c <blank_line+0xe>
    1ace:	b8 01 00 00 00       	mov    $0x1,%eax
    1ad3:	c9                   	leaveq 
    1ad4:	c3                   	retq   

0000000000001ad5 <skip>:
skip():
    1ad5:	55                   	push   %rbp
    1ad6:	48 89 e5             	mov    %rsp,%rbp
    1ad9:	48 83 ec 10          	sub    $0x10,%rsp
    1add:	48 8b 0d 0c 2d 20 00 	mov    0x202d0c(%rip),%rcx        # 2047f0 <infile>
    1ae4:	8b 05 02 2d 20 00    	mov    0x202d02(%rip),%eax        # 2047ec <num_input_strings>
    1aea:	48 63 d0             	movslq %eax,%rdx
    1aed:	48 89 d0             	mov    %rdx,%rax
    1af0:	48 c1 e0 02          	shl    $0x2,%rax
    1af4:	48 01 d0             	add    %rdx,%rax
    1af7:	48 c1 e0 04          	shl    $0x4,%rax
    1afb:	48 8d 15 fe 2c 20 00 	lea    0x202cfe(%rip),%rdx        # 204800 <input_strings>
    1b02:	48 01 d0             	add    %rdx,%rax
    1b05:	48 89 ca             	mov    %rcx,%rdx
    1b08:	be 50 00 00 00       	mov    $0x50,%esi
    1b0d:	48 89 c7             	mov    %rax,%rdi
    1b10:	e8 7b f4 ff ff       	callq  f90 <fgets@plt>
    1b15:	48 89 45 f8          	mov    %rax,-0x8(%rbp)
    1b19:	48 83 7d f8 00       	cmpq   $0x0,-0x8(%rbp)
    1b1e:	74 10                	je     1b30 <skip+0x5b>
    1b20:	48 8b 45 f8          	mov    -0x8(%rbp),%rax
    1b24:	48 89 c7             	mov    %rax,%rdi
    1b27:	e8 52 ff ff ff       	callq  1a7e <blank_line>
    1b2c:	85 c0                	test   %eax,%eax
    1b2e:	75 ad                	jne    1add <skip+0x8>
    1b30:	48 8b 45 f8          	mov    -0x8(%rbp),%rax
    1b34:	c9                   	leaveq 
    1b35:	c3                   	retq   

0000000000001b36 <read_line>:
read_line():
    1b36:	55                   	push   %rbp
    1b37:	48 89 e5             	mov    %rsp,%rbp
    1b3a:	48 83 ec 10          	sub    $0x10,%rsp
    1b3e:	b8 00 00 00 00       	mov    $0x0,%eax
    1b43:	e8 8d ff ff ff       	callq  1ad5 <skip>
    1b48:	48 89 45 f8          	mov    %rax,-0x8(%rbp)
    1b4c:	48 83 7d f8 00       	cmpq   $0x0,-0x8(%rbp)
    1b51:	75 7d                	jne    1bd0 <read_line+0x9a>
    1b53:	48 8b 15 96 2c 20 00 	mov    0x202c96(%rip),%rdx        # 2047f0 <infile>
    1b5a:	48 8b 05 6f 2c 20 00 	mov    0x202c6f(%rip),%rax        # 2047d0 <stdin@@GLIBC_2.2.5>
    1b61:	48 39 c2             	cmp    %rax,%rdx
    1b64:	75 16                	jne    1b7c <read_line+0x46>
    1b66:	48 8d 3d 46 13 00 00 	lea    0x1346(%rip),%rdi        # 2eb3 <_IO_stdin_used+0x2b3>
    1b6d:	e8 9e f3 ff ff       	callq  f10 <puts@plt>
    1b72:	bf 08 00 00 00       	mov    $0x8,%edi
    1b77:	e8 e4 f4 ff ff       	callq  1060 <exit@plt>
    1b7c:	48 8d 3d 4e 13 00 00 	lea    0x134e(%rip),%rdi        # 2ed1 <_IO_stdin_used+0x2d1>
    1b83:	e8 58 f3 ff ff       	callq  ee0 <getenv@plt>
    1b88:	48 85 c0             	test   %rax,%rax
    1b8b:	74 0a                	je     1b97 <read_line+0x61>
    1b8d:	bf 00 00 00 00       	mov    $0x0,%edi
    1b92:	e8 c9 f4 ff ff       	callq  1060 <exit@plt>
    1b97:	48 8b 05 32 2c 20 00 	mov    0x202c32(%rip),%rax        # 2047d0 <stdin@@GLIBC_2.2.5>
    1b9e:	48 89 05 4b 2c 20 00 	mov    %rax,0x202c4b(%rip)        # 2047f0 <infile>
    1ba5:	b8 00 00 00 00       	mov    $0x0,%eax
    1baa:	e8 26 ff ff ff       	callq  1ad5 <skip>
    1baf:	48 89 45 f8          	mov    %rax,-0x8(%rbp)
    1bb3:	48 83 7d f8 00       	cmpq   $0x0,-0x8(%rbp)
    1bb8:	75 16                	jne    1bd0 <read_line+0x9a>
    1bba:	48 8d 3d f2 12 00 00 	lea    0x12f2(%rip),%rdi        # 2eb3 <_IO_stdin_used+0x2b3>
    1bc1:	e8 4a f3 ff ff       	callq  f10 <puts@plt>
    1bc6:	bf 00 00 00 00       	mov    $0x0,%edi
    1bcb:	e8 90 f4 ff ff       	callq  1060 <exit@plt>
    1bd0:	8b 05 16 2c 20 00    	mov    0x202c16(%rip),%eax        # 2047ec <num_input_strings>
    1bd6:	48 63 d0             	movslq %eax,%rdx
    1bd9:	48 89 d0             	mov    %rdx,%rax
    1bdc:	48 c1 e0 02          	shl    $0x2,%rax
    1be0:	48 01 d0             	add    %rdx,%rax
    1be3:	48 c1 e0 04          	shl    $0x4,%rax
    1be7:	48 8d 15 12 2c 20 00 	lea    0x202c12(%rip),%rdx        # 204800 <input_strings>
    1bee:	48 01 d0             	add    %rdx,%rax
    1bf1:	48 89 c7             	mov    %rax,%rdi
    1bf4:	e8 37 f3 ff ff       	callq  f30 <strlen@plt>
    1bf9:	89 45 f4             	mov    %eax,-0xc(%rbp)
    1bfc:	83 7d f4 4e          	cmpl   $0x4e,-0xc(%rbp)
    1c00:	7e 56                	jle    1c58 <read_line+0x122>
    1c02:	48 8d 3d d3 12 00 00 	lea    0x12d3(%rip),%rdi        # 2edc <_IO_stdin_used+0x2dc>
    1c09:	e8 02 f3 ff ff       	callq  f10 <puts@plt>
    1c0e:	8b 05 d8 2b 20 00    	mov    0x202bd8(%rip),%eax        # 2047ec <num_input_strings>
    1c14:	8d 50 01             	lea    0x1(%rax),%edx
    1c17:	89 15 cf 2b 20 00    	mov    %edx,0x202bcf(%rip)        # 2047ec <num_input_strings>
    1c1d:	48 63 d0             	movslq %eax,%rdx
    1c20:	48 89 d0             	mov    %rdx,%rax
    1c23:	48 c1 e0 02          	shl    $0x2,%rax
    1c27:	48 01 d0             	add    %rdx,%rax
    1c2a:	48 c1 e0 04          	shl    $0x4,%rax
    1c2e:	48 8d 15 cb 2b 20 00 	lea    0x202bcb(%rip),%rdx        # 204800 <input_strings>
    1c35:	48 01 d0             	add    %rdx,%rax
    1c38:	48 be 2a 2a 2a 74 72 	movabs $0x636e7572742a2a2a,%rsi
    1c3f:	75 6e 63 
    1c42:	48 89 30             	mov    %rsi,(%rax)
    1c45:	48 b9 61 74 65 64 2a 	movabs $0x2a2a2a64657461,%rcx
    1c4c:	2a 2a 00 
    1c4f:	48 89 48 08          	mov    %rcx,0x8(%rax)
    1c53:	e8 5d 00 00 00       	callq  1cb5 <explode_bomb>
    1c58:	8b 05 8e 2b 20 00    	mov    0x202b8e(%rip),%eax        # 2047ec <num_input_strings>
    1c5e:	8b 55 f4             	mov    -0xc(%rbp),%edx
    1c61:	83 ea 01             	sub    $0x1,%edx
    1c64:	48 63 ca             	movslq %edx,%rcx
    1c67:	48 63 d0             	movslq %eax,%rdx
    1c6a:	48 89 d0             	mov    %rdx,%rax
    1c6d:	48 c1 e0 02          	shl    $0x2,%rax
    1c71:	48 01 d0             	add    %rdx,%rax
    1c74:	48 c1 e0 04          	shl    $0x4,%rax
    1c78:	48 8d 14 08          	lea    (%rax,%rcx,1),%rdx
    1c7c:	48 8d 05 7d 2b 20 00 	lea    0x202b7d(%rip),%rax        # 204800 <input_strings>
    1c83:	48 01 d0             	add    %rdx,%rax
    1c86:	c6 00 00             	movb   $0x0,(%rax)
    1c89:	8b 05 5d 2b 20 00    	mov    0x202b5d(%rip),%eax        # 2047ec <num_input_strings>
    1c8f:	8d 50 01             	lea    0x1(%rax),%edx
    1c92:	89 15 54 2b 20 00    	mov    %edx,0x202b54(%rip)        # 2047ec <num_input_strings>
    1c98:	48 63 d0             	movslq %eax,%rdx
    1c9b:	48 89 d0             	mov    %rdx,%rax
    1c9e:	48 c1 e0 02          	shl    $0x2,%rax
    1ca2:	48 01 d0             	add    %rdx,%rax
    1ca5:	48 c1 e0 04          	shl    $0x4,%rax
    1ca9:	48 8d 15 50 2b 20 00 	lea    0x202b50(%rip),%rdx        # 204800 <input_strings>
    1cb0:	48 01 d0             	add    %rdx,%rax
    1cb3:	c9                   	leaveq 
    1cb4:	c3                   	retq   

0000000000001cb5 <explode_bomb>:
explode_bomb():
    1cb5:	55                   	push   %rbp
    1cb6:	48 89 e5             	mov    %rsp,%rbp
    1cb9:	48 8d 3d 37 12 00 00 	lea    0x1237(%rip),%rdi        # 2ef7 <_IO_stdin_used+0x2f7>
    1cc0:	e8 4b f2 ff ff       	callq  f10 <puts@plt>
    1cc5:	48 8d 3d 34 12 00 00 	lea    0x1234(%rip),%rdi        # 2f00 <_IO_stdin_used+0x300>
    1ccc:	e8 3f f2 ff ff       	callq  f10 <puts@plt>
    1cd1:	bf 08 00 00 00       	mov    $0x8,%edi
    1cd6:	e8 85 f3 ff ff       	callq  1060 <exit@plt>

0000000000001cdb <phase_defused>:
phase_defused():
    1cdb:	55                   	push   %rbp
    1cdc:	48 89 e5             	mov    %rsp,%rbp
    1cdf:	48 83 ec 70          	sub    $0x70,%rsp
    1ce3:	8b 05 03 2b 20 00    	mov    0x202b03(%rip),%eax        # 2047ec <num_input_strings>
    1ce9:	83 f8 06             	cmp    $0x6,%eax
    1cec:	75 7b                	jne    1d69 <phase_defused+0x8e>
    1cee:	48 8d 4d a0          	lea    -0x60(%rbp),%rcx
    1cf2:	48 8d 55 98          	lea    -0x68(%rbp),%rdx
    1cf6:	48 8d 45 9c          	lea    -0x64(%rbp),%rax
    1cfa:	49 89 c8             	mov    %rcx,%r8
    1cfd:	48 89 d1             	mov    %rdx,%rcx
    1d00:	48 89 c2             	mov    %rax,%rdx
    1d03:	48 8d 35 0d 12 00 00 	lea    0x120d(%rip),%rsi        # 2f17 <_IO_stdin_used+0x317>
    1d0a:	48 8d 3d df 2b 20 00 	lea    0x202bdf(%rip),%rdi        # 2048f0 <input_strings+0xf0>
    1d11:	b8 00 00 00 00       	mov    $0x0,%eax
    1d16:	e8 e5 f2 ff ff       	callq  1000 <__isoc99_sscanf@plt>
    1d1b:	89 45 fc             	mov    %eax,-0x4(%rbp)
    1d1e:	83 7d fc 03          	cmpl   $0x3,-0x4(%rbp)
    1d22:	75 39                	jne    1d5d <phase_defused+0x82>
    1d24:	48 8d 45 a0          	lea    -0x60(%rbp),%rax
    1d28:	48 8d 35 f1 11 00 00 	lea    0x11f1(%rip),%rsi        # 2f20 <_IO_stdin_used+0x320>
    1d2f:	48 89 c7             	mov    %rax,%rdi
    1d32:	e8 a6 fc ff ff       	callq  19dd <strings_not_equal>
    1d37:	85 c0                	test   %eax,%eax
    1d39:	75 22                	jne    1d5d <phase_defused+0x82>
    1d3b:	48 8d 3d e6 11 00 00 	lea    0x11e6(%rip),%rdi        # 2f28 <_IO_stdin_used+0x328>
    1d42:	e8 c9 f1 ff ff       	callq  f10 <puts@plt>
    1d47:	48 8d 3d 02 12 00 00 	lea    0x1202(%rip),%rdi        # 2f50 <_IO_stdin_used+0x350>
    1d4e:	e8 bd f1 ff ff       	callq  f10 <puts@plt>
    1d53:	b8 00 00 00 00       	mov    $0x0,%eax
    1d58:	e8 ed fa ff ff       	callq  184a <secret_phase>
    1d5d:	48 8d 3d 24 12 00 00 	lea    0x1224(%rip),%rdi        # 2f88 <_IO_stdin_used+0x388>
    1d64:	e8 a7 f1 ff ff       	callq  f10 <puts@plt>
    1d69:	90                   	nop
    1d6a:	c9                   	leaveq 
    1d6b:	c3                   	retq   

0000000000001d6c <sigalrm_handler>:
sigalrm_handler():
    1d6c:	55                   	push   %rbp
    1d6d:	48 89 e5             	mov    %rsp,%rbp
    1d70:	48 83 ec 10          	sub    $0x10,%rsp
    1d74:	89 7d fc             	mov    %edi,-0x4(%rbp)
    1d77:	48 8b 05 62 2a 20 00 	mov    0x202a62(%rip),%rax        # 2047e0 <stderr@@GLIBC_2.2.5>
    1d7e:	ba 00 00 00 00       	mov    $0x0,%edx
    1d83:	48 8d 35 2e 12 00 00 	lea    0x122e(%rip),%rsi        # 2fb8 <_IO_stdin_used+0x3b8>
    1d8a:	48 89 c7             	mov    %rax,%rdi
    1d8d:	b8 00 00 00 00       	mov    $0x0,%eax
    1d92:	e8 39 f2 ff ff       	callq  fd0 <fprintf@plt>
    1d97:	bf 01 00 00 00       	mov    $0x1,%edi
    1d9c:	e8 bf f2 ff ff       	callq  1060 <exit@plt>

0000000000001da1 <rio_readinitb>:
rio_readinitb():
    1da1:	55                   	push   %rbp
    1da2:	48 89 e5             	mov    %rsp,%rbp
    1da5:	48 89 7d f8          	mov    %rdi,-0x8(%rbp)
    1da9:	89 75 f4             	mov    %esi,-0xc(%rbp)
    1dac:	48 8b 45 f8          	mov    -0x8(%rbp),%rax
    1db0:	8b 55 f4             	mov    -0xc(%rbp),%edx
    1db3:	89 10                	mov    %edx,(%rax)
    1db5:	48 8b 45 f8          	mov    -0x8(%rbp),%rax
    1db9:	c7 40 04 00 00 00 00 	movl   $0x0,0x4(%rax)
    1dc0:	48 8b 45 f8          	mov    -0x8(%rbp),%rax
    1dc4:	48 8d 50 10          	lea    0x10(%rax),%rdx
    1dc8:	48 8b 45 f8          	mov    -0x8(%rbp),%rax
    1dcc:	48 89 50 08          	mov    %rdx,0x8(%rax)
    1dd0:	90                   	nop
    1dd1:	5d                   	pop    %rbp
    1dd2:	c3                   	retq   

0000000000001dd3 <rio_read>:
rio_read():
    1dd3:	55                   	push   %rbp
    1dd4:	48 89 e5             	mov    %rsp,%rbp
    1dd7:	48 83 ec 30          	sub    $0x30,%rsp
    1ddb:	48 89 7d e8          	mov    %rdi,-0x18(%rbp)
    1ddf:	48 89 75 e0          	mov    %rsi,-0x20(%rbp)
    1de3:	48 89 55 d8          	mov    %rdx,-0x28(%rbp)
    1de7:	eb 6e                	jmp    1e57 <rio_read+0x84>
    1de9:	48 8b 45 e8          	mov    -0x18(%rbp),%rax
    1ded:	48 8d 48 10          	lea    0x10(%rax),%rcx
    1df1:	48 8b 45 e8          	mov    -0x18(%rbp),%rax
    1df5:	8b 00                	mov    (%rax),%eax
    1df7:	ba 00 20 00 00       	mov    $0x2000,%edx
    1dfc:	48 89 ce             	mov    %rcx,%rsi
    1dff:	89 c7                	mov    %eax,%edi
    1e01:	e8 7a f1 ff ff       	callq  f80 <read@plt>
    1e06:	89 c2                	mov    %eax,%edx
    1e08:	48 8b 45 e8          	mov    -0x18(%rbp),%rax
    1e0c:	89 50 04             	mov    %edx,0x4(%rax)
    1e0f:	48 8b 45 e8          	mov    -0x18(%rbp),%rax
    1e13:	8b 40 04             	mov    0x4(%rax),%eax
    1e16:	85 c0                	test   %eax,%eax
    1e18:	79 18                	jns    1e32 <rio_read+0x5f>
    1e1a:	e8 d1 f0 ff ff       	callq  ef0 <__errno_location@plt>
    1e1f:	8b 00                	mov    (%rax),%eax
    1e21:	83 f8 04             	cmp    $0x4,%eax
    1e24:	74 31                	je     1e57 <rio_read+0x84>
    1e26:	48 c7 c0 ff ff ff ff 	mov    $0xffffffffffffffff,%rax
    1e2d:	e9 9d 00 00 00       	jmpq   1ecf <rio_read+0xfc>
    1e32:	48 8b 45 e8          	mov    -0x18(%rbp),%rax
    1e36:	8b 40 04             	mov    0x4(%rax),%eax
    1e39:	85 c0                	test   %eax,%eax
    1e3b:	75 0a                	jne    1e47 <rio_read+0x74>
    1e3d:	b8 00 00 00 00       	mov    $0x0,%eax
    1e42:	e9 88 00 00 00       	jmpq   1ecf <rio_read+0xfc>
    1e47:	48 8b 45 e8          	mov    -0x18(%rbp),%rax
    1e4b:	48 8d 50 10          	lea    0x10(%rax),%rdx
    1e4f:	48 8b 45 e8          	mov    -0x18(%rbp),%rax
    1e53:	48 89 50 08          	mov    %rdx,0x8(%rax)
    1e57:	48 8b 45 e8          	mov    -0x18(%rbp),%rax
    1e5b:	8b 40 04             	mov    0x4(%rax),%eax
    1e5e:	85 c0                	test   %eax,%eax
    1e60:	7e 87                	jle    1de9 <rio_read+0x16>
    1e62:	48 8b 45 d8          	mov    -0x28(%rbp),%rax
    1e66:	89 45 fc             	mov    %eax,-0x4(%rbp)
    1e69:	48 8b 45 e8          	mov    -0x18(%rbp),%rax
    1e6d:	8b 40 04             	mov    0x4(%rax),%eax
    1e70:	48 98                	cltq   
    1e72:	48 3b 45 d8          	cmp    -0x28(%rbp),%rax
    1e76:	73 0a                	jae    1e82 <rio_read+0xaf>
    1e78:	48 8b 45 e8          	mov    -0x18(%rbp),%rax
    1e7c:	8b 40 04             	mov    0x4(%rax),%eax
    1e7f:	89 45 fc             	mov    %eax,-0x4(%rbp)
    1e82:	8b 45 fc             	mov    -0x4(%rbp),%eax
    1e85:	48 63 d0             	movslq %eax,%rdx
    1e88:	48 8b 45 e8          	mov    -0x18(%rbp),%rax
    1e8c:	48 8b 48 08          	mov    0x8(%rax),%rcx
    1e90:	48 8b 45 e0          	mov    -0x20(%rbp),%rax
    1e94:	48 89 ce             	mov    %rcx,%rsi
    1e97:	48 89 c7             	mov    %rax,%rdi
    1e9a:	e8 41 f1 ff ff       	callq  fe0 <memcpy@plt>
    1e9f:	48 8b 45 e8          	mov    -0x18(%rbp),%rax
    1ea3:	48 8b 50 08          	mov    0x8(%rax),%rdx
    1ea7:	8b 45 fc             	mov    -0x4(%rbp),%eax
    1eaa:	48 98                	cltq   
    1eac:	48 01 c2             	add    %rax,%rdx
    1eaf:	48 8b 45 e8          	mov    -0x18(%rbp),%rax
    1eb3:	48 89 50 08          	mov    %rdx,0x8(%rax)
    1eb7:	48 8b 45 e8          	mov    -0x18(%rbp),%rax
    1ebb:	8b 40 04             	mov    0x4(%rax),%eax
    1ebe:	2b 45 fc             	sub    -0x4(%rbp),%eax
    1ec1:	89 c2                	mov    %eax,%edx
    1ec3:	48 8b 45 e8          	mov    -0x18(%rbp),%rax
    1ec7:	89 50 04             	mov    %edx,0x4(%rax)
    1eca:	8b 45 fc             	mov    -0x4(%rbp),%eax
    1ecd:	48 98                	cltq   
    1ecf:	c9                   	leaveq 
    1ed0:	c3                   	retq   

0000000000001ed1 <rio_readlineb>:
rio_readlineb():
    1ed1:	55                   	push   %rbp
    1ed2:	48 89 e5             	mov    %rsp,%rbp
    1ed5:	48 83 ec 40          	sub    $0x40,%rsp
    1ed9:	48 89 7d d8          	mov    %rdi,-0x28(%rbp)
    1edd:	48 89 75 d0          	mov    %rsi,-0x30(%rbp)
    1ee1:	48 89 55 c8          	mov    %rdx,-0x38(%rbp)
    1ee5:	48 8b 45 d0          	mov    -0x30(%rbp),%rax
    1ee9:	48 89 45 f0          	mov    %rax,-0x10(%rbp)
    1eed:	c7 45 fc 01 00 00 00 	movl   $0x1,-0x4(%rbp)
    1ef4:	eb 5d                	jmp    1f53 <rio_readlineb+0x82>
    1ef6:	48 8d 4d eb          	lea    -0x15(%rbp),%rcx
    1efa:	48 8b 45 d8          	mov    -0x28(%rbp),%rax
    1efe:	ba 01 00 00 00       	mov    $0x1,%edx
    1f03:	48 89 ce             	mov    %rcx,%rsi
    1f06:	48 89 c7             	mov    %rax,%rdi
    1f09:	e8 c5 fe ff ff       	callq  1dd3 <rio_read>
    1f0e:	89 45 ec             	mov    %eax,-0x14(%rbp)
    1f11:	83 7d ec 01          	cmpl   $0x1,-0x14(%rbp)
    1f15:	75 1c                	jne    1f33 <rio_readlineb+0x62>
    1f17:	48 8b 45 f0          	mov    -0x10(%rbp),%rax
    1f1b:	48 8d 50 01          	lea    0x1(%rax),%rdx
    1f1f:	48 89 55 f0          	mov    %rdx,-0x10(%rbp)
    1f23:	0f b6 55 eb          	movzbl -0x15(%rbp),%edx
    1f27:	88 10                	mov    %dl,(%rax)
    1f29:	0f b6 45 eb          	movzbl -0x15(%rbp),%eax
    1f2d:	3c 0a                	cmp    $0xa,%al
    1f2f:	75 1e                	jne    1f4f <rio_readlineb+0x7e>
    1f31:	eb 2e                	jmp    1f61 <rio_readlineb+0x90>
    1f33:	83 7d ec 00          	cmpl   $0x0,-0x14(%rbp)
    1f37:	75 0d                	jne    1f46 <rio_readlineb+0x75>
    1f39:	83 7d fc 01          	cmpl   $0x1,-0x4(%rbp)
    1f3d:	75 21                	jne    1f60 <rio_readlineb+0x8f>
    1f3f:	b8 00 00 00 00       	mov    $0x0,%eax
    1f44:	eb 27                	jmp    1f6d <rio_readlineb+0x9c>
    1f46:	48 c7 c0 ff ff ff ff 	mov    $0xffffffffffffffff,%rax
    1f4d:	eb 1e                	jmp    1f6d <rio_readlineb+0x9c>
    1f4f:	83 45 fc 01          	addl   $0x1,-0x4(%rbp)
    1f53:	8b 45 fc             	mov    -0x4(%rbp),%eax
    1f56:	48 98                	cltq   
    1f58:	48 3b 45 c8          	cmp    -0x38(%rbp),%rax
    1f5c:	72 98                	jb     1ef6 <rio_readlineb+0x25>
    1f5e:	eb 01                	jmp    1f61 <rio_readlineb+0x90>
    1f60:	90                   	nop
    1f61:	48 8b 45 f0          	mov    -0x10(%rbp),%rax
    1f65:	c6 00 00             	movb   $0x0,(%rax)
    1f68:	8b 45 fc             	mov    -0x4(%rbp),%eax
    1f6b:	48 98                	cltq   
    1f6d:	c9                   	leaveq 
    1f6e:	c3                   	retq   

0000000000001f6f <rio_writen>:
rio_writen():
    1f6f:	55                   	push   %rbp
    1f70:	48 89 e5             	mov    %rsp,%rbp
    1f73:	48 83 ec 40          	sub    $0x40,%rsp
    1f77:	89 7d dc             	mov    %edi,-0x24(%rbp)
    1f7a:	48 89 75 d0          	mov    %rsi,-0x30(%rbp)
    1f7e:	48 89 55 c8          	mov    %rdx,-0x38(%rbp)
    1f82:	48 8b 45 c8          	mov    -0x38(%rbp),%rax
    1f86:	48 89 45 f8          	mov    %rax,-0x8(%rbp)
    1f8a:	48 8b 45 d0          	mov    -0x30(%rbp),%rax
    1f8e:	48 89 45 e8          	mov    %rax,-0x18(%rbp)
    1f92:	eb 4f                	jmp    1fe3 <rio_writen+0x74>
    1f94:	48 8b 55 f8          	mov    -0x8(%rbp),%rdx
    1f98:	48 8b 4d e8          	mov    -0x18(%rbp),%rcx
    1f9c:	8b 45 dc             	mov    -0x24(%rbp),%eax
    1f9f:	48 89 ce             	mov    %rcx,%rsi
    1fa2:	89 c7                	mov    %eax,%edi
    1fa4:	e8 77 ef ff ff       	callq  f20 <write@plt>
    1fa9:	48 89 45 f0          	mov    %rax,-0x10(%rbp)
    1fad:	48 83 7d f0 00       	cmpq   $0x0,-0x10(%rbp)
    1fb2:	7f 1f                	jg     1fd3 <rio_writen+0x64>
    1fb4:	e8 37 ef ff ff       	callq  ef0 <__errno_location@plt>
    1fb9:	8b 00                	mov    (%rax),%eax
    1fbb:	83 f8 04             	cmp    $0x4,%eax
    1fbe:	75 0a                	jne    1fca <rio_writen+0x5b>
    1fc0:	48 c7 45 f0 00 00 00 	movq   $0x0,-0x10(%rbp)
    1fc7:	00 
    1fc8:	eb 09                	jmp    1fd3 <rio_writen+0x64>
    1fca:	48 c7 c0 ff ff ff ff 	mov    $0xffffffffffffffff,%rax
    1fd1:	eb 1b                	jmp    1fee <rio_writen+0x7f>
    1fd3:	48 8b 45 f0          	mov    -0x10(%rbp),%rax
    1fd7:	48 29 45 f8          	sub    %rax,-0x8(%rbp)
    1fdb:	48 8b 45 f0          	mov    -0x10(%rbp),%rax
    1fdf:	48 01 45 e8          	add    %rax,-0x18(%rbp)
    1fe3:	48 83 7d f8 00       	cmpq   $0x0,-0x8(%rbp)
    1fe8:	75 aa                	jne    1f94 <rio_writen+0x25>
    1fea:	48 8b 45 c8          	mov    -0x38(%rbp),%rax
    1fee:	c9                   	leaveq 
    1fef:	c3                   	retq   

0000000000001ff0 <urlencode>:
urlencode():
    1ff0:	55                   	push   %rbp
    1ff1:	48 89 e5             	mov    %rsp,%rbp
    1ff4:	48 83 ec 20          	sub    $0x20,%rsp
    1ff8:	48 89 7d e8          	mov    %rdi,-0x18(%rbp)
    1ffc:	48 89 75 e0          	mov    %rsi,-0x20(%rbp)
    2000:	48 8b 45 e8          	mov    -0x18(%rbp),%rax
    2004:	48 89 c7             	mov    %rax,%rdi
    2007:	e8 24 ef ff ff       	callq  f30 <strlen@plt>
    200c:	89 45 fc             	mov    %eax,-0x4(%rbp)
    200f:	e9 2e 01 00 00       	jmpq   2142 <urlencode+0x152>
    2014:	48 8b 45 e8          	mov    -0x18(%rbp),%rax
    2018:	0f b6 00             	movzbl (%rax),%eax
    201b:	3c 2a                	cmp    $0x2a,%al
    201d:	74 63                	je     2082 <urlencode+0x92>
    201f:	48 8b 45 e8          	mov    -0x18(%rbp),%rax
    2023:	0f b6 00             	movzbl (%rax),%eax
    2026:	3c 2d                	cmp    $0x2d,%al
    2028:	74 58                	je     2082 <urlencode+0x92>
    202a:	48 8b 45 e8          	mov    -0x18(%rbp),%rax
    202e:	0f b6 00             	movzbl (%rax),%eax
    2031:	3c 2e                	cmp    $0x2e,%al
    2033:	74 4d                	je     2082 <urlencode+0x92>
    2035:	48 8b 45 e8          	mov    -0x18(%rbp),%rax
    2039:	0f b6 00             	movzbl (%rax),%eax
    203c:	3c 5f                	cmp    $0x5f,%al
    203e:	74 42                	je     2082 <urlencode+0x92>
    2040:	48 8b 45 e8          	mov    -0x18(%rbp),%rax
    2044:	0f b6 00             	movzbl (%rax),%eax
    2047:	3c 2f                	cmp    $0x2f,%al
    2049:	76 0b                	jbe    2056 <urlencode+0x66>
    204b:	48 8b 45 e8          	mov    -0x18(%rbp),%rax
    204f:	0f b6 00             	movzbl (%rax),%eax
    2052:	3c 39                	cmp    $0x39,%al
    2054:	76 2c                	jbe    2082 <urlencode+0x92>
    2056:	48 8b 45 e8          	mov    -0x18(%rbp),%rax
    205a:	0f b6 00             	movzbl (%rax),%eax
    205d:	3c 40                	cmp    $0x40,%al
    205f:	76 0b                	jbe    206c <urlencode+0x7c>
    2061:	48 8b 45 e8          	mov    -0x18(%rbp),%rax
    2065:	0f b6 00             	movzbl (%rax),%eax
    2068:	3c 5a                	cmp    $0x5a,%al
    206a:	76 16                	jbe    2082 <urlencode+0x92>
    206c:	48 8b 45 e8          	mov    -0x18(%rbp),%rax
    2070:	0f b6 00             	movzbl (%rax),%eax
    2073:	3c 60                	cmp    $0x60,%al
    2075:	76 25                	jbe    209c <urlencode+0xac>
    2077:	48 8b 45 e8          	mov    -0x18(%rbp),%rax
    207b:	0f b6 00             	movzbl (%rax),%eax
    207e:	3c 7a                	cmp    $0x7a,%al
    2080:	77 1a                	ja     209c <urlencode+0xac>
    2082:	48 8b 45 e0          	mov    -0x20(%rbp),%rax
    2086:	48 8d 50 01          	lea    0x1(%rax),%rdx
    208a:	48 89 55 e0          	mov    %rdx,-0x20(%rbp)
    208e:	48 8b 55 e8          	mov    -0x18(%rbp),%rdx
    2092:	0f b6 12             	movzbl (%rdx),%edx
    2095:	88 10                	mov    %dl,(%rax)
    2097:	e9 a1 00 00 00       	jmpq   213d <urlencode+0x14d>
    209c:	48 8b 45 e8          	mov    -0x18(%rbp),%rax
    20a0:	0f b6 00             	movzbl (%rax),%eax
    20a3:	3c 20                	cmp    $0x20,%al
    20a5:	75 14                	jne    20bb <urlencode+0xcb>
    20a7:	48 8b 45 e0          	mov    -0x20(%rbp),%rax
    20ab:	48 8d 50 01          	lea    0x1(%rax),%rdx
    20af:	48 89 55 e0          	mov    %rdx,-0x20(%rbp)
    20b3:	c6 00 2b             	movb   $0x2b,(%rax)
    20b6:	e9 82 00 00 00       	jmpq   213d <urlencode+0x14d>
    20bb:	48 8b 45 e8          	mov    -0x18(%rbp),%rax
    20bf:	0f b6 00             	movzbl (%rax),%eax
    20c2:	3c 1f                	cmp    $0x1f,%al
    20c4:	76 0b                	jbe    20d1 <urlencode+0xe1>
    20c6:	48 8b 45 e8          	mov    -0x18(%rbp),%rax
    20ca:	0f b6 00             	movzbl (%rax),%eax
    20cd:	84 c0                	test   %al,%al
    20cf:	79 0b                	jns    20dc <urlencode+0xec>
    20d1:	48 8b 45 e8          	mov    -0x18(%rbp),%rax
    20d5:	0f b6 00             	movzbl (%rax),%eax
    20d8:	3c 09                	cmp    $0x9,%al
    20da:	75 5a                	jne    2136 <urlencode+0x146>
    20dc:	48 8b 45 e8          	mov    -0x18(%rbp),%rax
    20e0:	0f b6 00             	movzbl (%rax),%eax
    20e3:	0f b6 d0             	movzbl %al,%edx
    20e6:	48 8d 45 f4          	lea    -0xc(%rbp),%rax
    20ea:	48 8d 35 eb 0e 00 00 	lea    0xeeb(%rip),%rsi        # 2fdc <_IO_stdin_used+0x3dc>
    20f1:	48 89 c7             	mov    %rax,%rdi
    20f4:	b8 00 00 00 00       	mov    $0x0,%eax
    20f9:	e8 52 ef ff ff       	callq  1050 <sprintf@plt>
    20fe:	48 8b 45 e0          	mov    -0x20(%rbp),%rax
    2102:	48 8d 50 01          	lea    0x1(%rax),%rdx
    2106:	48 89 55 e0          	mov    %rdx,-0x20(%rbp)
    210a:	0f b6 55 f4          	movzbl -0xc(%rbp),%edx
    210e:	88 10                	mov    %dl,(%rax)
    2110:	48 8b 45 e0          	mov    -0x20(%rbp),%rax
    2114:	48 8d 50 01          	lea    0x1(%rax),%rdx
    2118:	48 89 55 e0          	mov    %rdx,-0x20(%rbp)
    211c:	0f b6 55 f5          	movzbl -0xb(%rbp),%edx
    2120:	88 10                	mov    %dl,(%rax)
    2122:	48 8b 45 e0          	mov    -0x20(%rbp),%rax
    2126:	48 8d 50 01          	lea    0x1(%rax),%rdx
    212a:	48 89 55 e0          	mov    %rdx,-0x20(%rbp)
    212e:	0f b6 55 f6          	movzbl -0xa(%rbp),%edx
    2132:	88 10                	mov    %dl,(%rax)
    2134:	eb 07                	jmp    213d <urlencode+0x14d>
    2136:	b8 ff ff ff ff       	mov    $0xffffffff,%eax
    213b:	eb 1b                	jmp    2158 <urlencode+0x168>
    213d:	48 83 45 e8 01       	addq   $0x1,-0x18(%rbp)
    2142:	8b 45 fc             	mov    -0x4(%rbp),%eax
    2145:	8d 50 ff             	lea    -0x1(%rax),%edx
    2148:	89 55 fc             	mov    %edx,-0x4(%rbp)
    214b:	85 c0                	test   %eax,%eax
    214d:	0f 85 c1 fe ff ff    	jne    2014 <urlencode+0x24>
    2153:	b8 00 00 00 00       	mov    $0x0,%eax
    2158:	c9                   	leaveq 
    2159:	c3                   	retq   

000000000000215a <submitr>:
submitr():
    215a:	55                   	push   %rbp
    215b:	48 89 e5             	mov    %rsp,%rbp
    215e:	53                   	push   %rbx
    215f:	48 81 ec 88 a0 00 00 	sub    $0xa088,%rsp
    2166:	48 89 bd 98 5f ff ff 	mov    %rdi,-0xa068(%rbp)
    216d:	89 b5 94 5f ff ff    	mov    %esi,-0xa06c(%rbp)
    2173:	48 89 95 88 5f ff ff 	mov    %rdx,-0xa078(%rbp)
    217a:	48 89 8d 80 5f ff ff 	mov    %rcx,-0xa080(%rbp)
    2181:	4c 89 85 78 5f ff ff 	mov    %r8,-0xa088(%rbp)
    2188:	4c 89 8d 70 5f ff ff 	mov    %r9,-0xa090(%rbp)
    218f:	c7 85 ac 7f ff ff 00 	movl   $0x0,-0x8054(%rbp)
    2196:	00 00 00 
    2199:	ba 00 00 00 00       	mov    $0x0,%edx
    219e:	be 01 00 00 00       	mov    $0x1,%esi
    21a3:	bf 02 00 00 00       	mov    $0x2,%edi
    21a8:	e8 f3 ee ff ff       	callq  10a0 <socket@plt>
    21ad:	89 45 ec             	mov    %eax,-0x14(%rbp)
    21b0:	83 7d ec 00          	cmpl   $0x0,-0x14(%rbp)
    21b4:	79 52                	jns    2208 <submitr+0xae>
    21b6:	48 8b 45 10          	mov    0x10(%rbp),%rax
    21ba:	48 bb 45 72 72 6f 72 	movabs $0x43203a726f727245,%rbx
    21c1:	3a 20 43 
    21c4:	48 89 18             	mov    %rbx,(%rax)
    21c7:	48 bb 6c 69 65 6e 74 	movabs $0x6e7520746e65696c,%rbx
    21ce:	20 75 6e 
    21d1:	48 89 58 08          	mov    %rbx,0x8(%rax)
    21d5:	48 bb 61 62 6c 65 20 	movabs $0x206f7420656c6261,%rbx
    21dc:	74 6f 20 
    21df:	48 89 58 10          	mov    %rbx,0x10(%rax)
    21e3:	48 bb 63 72 65 61 74 	movabs $0x7320657461657263,%rbx
    21ea:	65 20 73 
    21ed:	48 89 58 18          	mov    %rbx,0x18(%rax)
    21f1:	c7 40 20 6f 63 6b 65 	movl   $0x656b636f,0x20(%rax)
    21f8:	66 c7 40 24 74 00    	movw   $0x74,0x24(%rax)
    21fe:	b8 ff ff ff ff       	mov    $0xffffffff,%eax
    2203:	e9 80 06 00 00       	jmpq   2888 <submitr+0x72e>
    2208:	48 8b 85 98 5f ff ff 	mov    -0xa068(%rbp),%rax
    220f:	48 89 c7             	mov    %rax,%rdi
    2212:	e8 a9 ed ff ff       	callq  fc0 <gethostbyname@plt>
    2217:	48 89 45 e0          	mov    %rax,-0x20(%rbp)
    221b:	48 83 7d e0 00       	cmpq   $0x0,-0x20(%rbp)
    2220:	75 6e                	jne    2290 <submitr+0x136>
    2222:	48 8b 45 10          	mov    0x10(%rbp),%rax
    2226:	48 bb 45 72 72 6f 72 	movabs $0x44203a726f727245,%rbx
    222d:	3a 20 44 
    2230:	48 89 18             	mov    %rbx,(%rax)
    2233:	48 bb 4e 53 20 69 73 	movabs $0x6e7520736920534e,%rbx
    223a:	20 75 6e 
    223d:	48 89 58 08          	mov    %rbx,0x8(%rax)
    2241:	48 bb 61 62 6c 65 20 	movabs $0x206f7420656c6261,%rbx
    2248:	74 6f 20 
    224b:	48 89 58 10          	mov    %rbx,0x10(%rax)
    224f:	48 bb 72 65 73 6f 6c 	movabs $0x2065766c6f736572,%rbx
    2256:	76 65 20 
    2259:	48 89 58 18          	mov    %rbx,0x18(%rax)
    225d:	48 bb 73 65 72 76 65 	movabs $0x6120726576726573,%rbx
    2264:	72 20 61 
    2267:	48 89 58 20          	mov    %rbx,0x20(%rax)
    226b:	c7 40 28 64 64 72 65 	movl   $0x65726464,0x28(%rax)
    2272:	66 c7 40 2c 73 73    	movw   $0x7373,0x2c(%rax)
    2278:	c6 40 2e 00          	movb   $0x0,0x2e(%rax)
    227c:	8b 45 ec             	mov    -0x14(%rbp),%eax
    227f:	89 c7                	mov    %eax,%edi
    2281:	e8 ea ec ff ff       	callq  f70 <close@plt>
    2286:	b8 ff ff ff ff       	mov    $0xffffffff,%eax
    228b:	e9 f8 05 00 00       	jmpq   2888 <submitr+0x72e>
    2290:	48 8d 45 c0          	lea    -0x40(%rbp),%rax
    2294:	be 10 00 00 00       	mov    $0x10,%esi
    2299:	48 89 c7             	mov    %rax,%rdi
    229c:	e8 8f ed ff ff       	callq  1030 <bzero@plt>
    22a1:	66 c7 45 c0 02 00    	movw   $0x2,-0x40(%rbp)
    22a7:	48 8b 45 e0          	mov    -0x20(%rbp),%rax
    22ab:	8b 40 14             	mov    0x14(%rax),%eax
    22ae:	48 63 d0             	movslq %eax,%rdx
    22b1:	48 8b 45 e0          	mov    -0x20(%rbp),%rax
    22b5:	48 8b 40 18          	mov    0x18(%rax),%rax
    22b9:	48 8b 00             	mov    (%rax),%rax
    22bc:	48 8d 4d c0          	lea    -0x40(%rbp),%rcx
    22c0:	48 83 c1 04          	add    $0x4,%rcx
    22c4:	48 89 ce             	mov    %rcx,%rsi
    22c7:	48 89 c7             	mov    %rax,%rdi
    22ca:	e8 41 ed ff ff       	callq  1010 <bcopy@plt>
    22cf:	8b 85 94 5f ff ff    	mov    -0xa06c(%rbp),%eax
    22d5:	0f b7 c0             	movzwl %ax,%eax
    22d8:	89 c7                	mov    %eax,%edi
    22da:	e8 61 ec ff ff       	callq  f40 <htons@plt>
    22df:	66 89 45 c2          	mov    %ax,-0x3e(%rbp)
    22e3:	48 8d 4d c0          	lea    -0x40(%rbp),%rcx
    22e7:	8b 45 ec             	mov    -0x14(%rbp),%eax
    22ea:	ba 10 00 00 00       	mov    $0x10,%edx
    22ef:	48 89 ce             	mov    %rcx,%rsi
    22f2:	89 c7                	mov    %eax,%edi
    22f4:	e8 77 ed ff ff       	callq  1070 <connect@plt>
    22f9:	85 c0                	test   %eax,%eax
    22fb:	79 60                	jns    235d <submitr+0x203>
    22fd:	48 8b 45 10          	mov    0x10(%rbp),%rax
    2301:	48 be 45 72 72 6f 72 	movabs $0x55203a726f727245,%rsi
    2308:	3a 20 55 
    230b:	48 89 30             	mov    %rsi,(%rax)
    230e:	48 bb 6e 61 62 6c 65 	movabs $0x6f7420656c62616e,%rbx
    2315:	20 74 6f 
    2318:	48 89 58 08          	mov    %rbx,0x8(%rax)
    231c:	48 b9 20 63 6f 6e 6e 	movabs $0x7463656e6e6f6320,%rcx
    2323:	65 63 74 
    2326:	48 89 48 10          	mov    %rcx,0x10(%rax)
    232a:	48 be 20 74 6f 20 74 	movabs $0x20656874206f7420,%rsi
    2331:	68 65 20 
    2334:	48 89 70 18          	mov    %rsi,0x18(%rax)
    2338:	c7 40 20 73 65 72 76 	movl   $0x76726573,0x20(%rax)
    233f:	66 c7 40 24 65 72    	movw   $0x7265,0x24(%rax)
    2345:	c6 40 26 00          	movb   $0x0,0x26(%rax)
    2349:	8b 45 ec             	mov    -0x14(%rbp),%eax
    234c:	89 c7                	mov    %eax,%edi
    234e:	e8 1d ec ff ff       	callq  f70 <close@plt>
    2353:	b8 ff ff ff ff       	mov    $0xffffffff,%eax
    2358:	e9 2b 05 00 00       	jmpq   2888 <submitr+0x72e>
    235d:	48 8b 85 70 5f ff ff 	mov    -0xa090(%rbp),%rax
    2364:	48 89 c7             	mov    %rax,%rdi
    2367:	e8 c4 eb ff ff       	callq  f30 <strlen@plt>
    236c:	48 89 45 d8          	mov    %rax,-0x28(%rbp)
    2370:	48 8b 85 88 5f ff ff 	mov    -0xa078(%rbp),%rax
    2377:	48 89 c7             	mov    %rax,%rdi
    237a:	e8 b1 eb ff ff       	callq  f30 <strlen@plt>
    237f:	48 89 c3             	mov    %rax,%rbx
    2382:	48 8b 85 80 5f ff ff 	mov    -0xa080(%rbp),%rax
    2389:	48 89 c7             	mov    %rax,%rdi
    238c:	e8 9f eb ff ff       	callq  f30 <strlen@plt>
    2391:	48 01 c3             	add    %rax,%rbx
    2394:	48 8b 85 78 5f ff ff 	mov    -0xa088(%rbp),%rax
    239b:	48 89 c7             	mov    %rax,%rdi
    239e:	e8 8d eb ff ff       	callq  f30 <strlen@plt>
    23a3:	48 8d 0c 03          	lea    (%rbx,%rax,1),%rcx
    23a7:	48 8b 55 d8          	mov    -0x28(%rbp),%rdx
    23ab:	48 89 d0             	mov    %rdx,%rax
    23ae:	48 01 c0             	add    %rax,%rax
    23b1:	48 01 d0             	add    %rdx,%rax
    23b4:	48 01 c8             	add    %rcx,%rax
    23b7:	48 83 e8 80          	sub    $0xffffffffffffff80,%rax
    23bb:	48 89 45 d0          	mov    %rax,-0x30(%rbp)
    23bf:	48 81 7d d0 00 20 00 	cmpq   $0x2000,-0x30(%rbp)
    23c6:	00 
    23c7:	76 79                	jbe    2442 <submitr+0x2e8>
    23c9:	48 8b 45 10          	mov    0x10(%rbp),%rax
    23cd:	48 bb 45 72 72 6f 72 	movabs $0x52203a726f727245,%rbx
    23d4:	3a 20 52 
    23d7:	48 89 18             	mov    %rbx,(%rax)
    23da:	48 b9 65 73 75 6c 74 	movabs $0x747320746c757365,%rcx
    23e1:	20 73 74 
    23e4:	48 89 48 08          	mov    %rcx,0x8(%rax)
    23e8:	48 be 72 69 6e 67 20 	movabs $0x6f6f7420676e6972,%rsi
    23ef:	74 6f 6f 
    23f2:	48 89 70 10          	mov    %rsi,0x10(%rax)
    23f6:	48 bb 20 6c 61 72 67 	movabs $0x202e656772616c20,%rbx
    23fd:	65 2e 20 
    2400:	48 89 58 18          	mov    %rbx,0x18(%rax)
    2404:	48 ba 49 6e 63 72 65 	movabs $0x6573616572636e49,%rdx
    240b:	61 73 65 
    240e:	48 89 50 20          	mov    %rdx,0x20(%rax)
    2412:	48 b9 20 53 55 42 4d 	movabs $0x5254494d42555320,%rcx
    2419:	49 54 52 
    241c:	48 89 48 28          	mov    %rcx,0x28(%rax)
    2420:	48 be 5f 4d 41 58 42 	movabs $0x46554258414d5f,%rsi
    2427:	55 46 00 
    242a:	48 89 70 30          	mov    %rsi,0x30(%rax)
    242e:	8b 45 ec             	mov    -0x14(%rbp),%eax
    2431:	89 c7                	mov    %eax,%edi
    2433:	e8 38 eb ff ff       	callq  f70 <close@plt>
    2438:	b8 ff ff ff ff       	mov    $0xffffffff,%eax
    243d:	e9 46 04 00 00       	jmpq   2888 <submitr+0x72e>
    2442:	48 8d 85 b0 9f ff ff 	lea    -0x6050(%rbp),%rax
    2449:	be 00 20 00 00       	mov    $0x2000,%esi
    244e:	48 89 c7             	mov    %rax,%rdi
    2451:	e8 da eb ff ff       	callq  1030 <bzero@plt>
    2456:	48 8d 95 b0 9f ff ff 	lea    -0x6050(%rbp),%rdx
    245d:	48 8b 85 70 5f ff ff 	mov    -0xa090(%rbp),%rax
    2464:	48 89 d6             	mov    %rdx,%rsi
    2467:	48 89 c7             	mov    %rax,%rdi
    246a:	e8 81 fb ff ff       	callq  1ff0 <urlencode>
    246f:	85 c0                	test   %eax,%eax
    2471:	0f 89 91 00 00 00    	jns    2508 <submitr+0x3ae>
    2477:	48 8b 45 10          	mov    0x10(%rbp),%rax
    247b:	48 bb 45 72 72 6f 72 	movabs $0x52203a726f727245,%rbx
    2482:	3a 20 52 
    2485:	48 89 18             	mov    %rbx,(%rax)
    2488:	48 ba 65 73 75 6c 74 	movabs $0x747320746c757365,%rdx
    248f:	20 73 74 
    2492:	48 89 50 08          	mov    %rdx,0x8(%rax)
    2496:	48 b9 72 69 6e 67 20 	movabs $0x6e6f6320676e6972,%rcx
    249d:	63 6f 6e 
    24a0:	48 89 48 10          	mov    %rcx,0x10(%rax)
    24a4:	48 be 74 61 69 6e 73 	movabs $0x6e6120736e696174,%rsi
    24ab:	20 61 6e 
    24ae:	48 89 70 18          	mov    %rsi,0x18(%rax)
    24b2:	48 bb 20 69 6c 6c 65 	movabs $0x6c6167656c6c6920,%rbx
    24b9:	67 61 6c 
    24bc:	48 89 58 20          	mov    %rbx,0x20(%rax)
    24c0:	48 ba 20 6f 72 20 75 	movabs $0x72706e7520726f20,%rdx
    24c7:	6e 70 72 
    24ca:	48 89 50 28          	mov    %rdx,0x28(%rax)
    24ce:	48 b9 69 6e 74 61 62 	movabs $0x20656c6261746e69,%rcx
    24d5:	6c 65 20 
    24d8:	48 89 48 30          	mov    %rcx,0x30(%rax)
    24dc:	48 be 63 68 61 72 61 	movabs $0x6574636172616863,%rsi
    24e3:	63 74 65 
    24e6:	48 89 70 38          	mov    %rsi,0x38(%rax)
    24ea:	66 c7 40 40 72 2e    	movw   $0x2e72,0x40(%rax)
    24f0:	c6 40 42 00          	movb   $0x0,0x42(%rax)
    24f4:	8b 45 ec             	mov    -0x14(%rbp),%eax
    24f7:	89 c7                	mov    %eax,%edi
    24f9:	e8 72 ea ff ff       	callq  f70 <close@plt>
    24fe:	b8 ff ff ff ff       	mov    $0xffffffff,%eax
    2503:	e9 80 03 00 00       	jmpq   2888 <submitr+0x72e>
    2508:	48 8d bd b0 9f ff ff 	lea    -0x6050(%rbp),%rdi
    250f:	48 8b b5 78 5f ff ff 	mov    -0xa088(%rbp),%rsi
    2516:	48 8b 8d 80 5f ff ff 	mov    -0xa080(%rbp),%rcx
    251d:	48 8b 95 88 5f ff ff 	mov    -0xa078(%rbp),%rdx
    2524:	48 8d 85 b0 bf ff ff 	lea    -0x4050(%rbp),%rax
    252b:	49 89 f9             	mov    %rdi,%r9
    252e:	49 89 f0             	mov    %rsi,%r8
    2531:	48 8d 35 b0 0a 00 00 	lea    0xab0(%rip),%rsi        # 2fe8 <_IO_stdin_used+0x3e8>
    2538:	48 89 c7             	mov    %rax,%rdi
    253b:	b8 00 00 00 00       	mov    $0x0,%eax
    2540:	e8 0b eb ff ff       	callq  1050 <sprintf@plt>
    2545:	48 8d 85 b0 bf ff ff 	lea    -0x4050(%rbp),%rax
    254c:	48 89 c7             	mov    %rax,%rdi
    254f:	e8 dc e9 ff ff       	callq  f30 <strlen@plt>
    2554:	48 89 c2             	mov    %rax,%rdx
    2557:	48 8d 8d b0 bf ff ff 	lea    -0x4050(%rbp),%rcx
    255e:	8b 45 ec             	mov    -0x14(%rbp),%eax
    2561:	48 89 ce             	mov    %rcx,%rsi
    2564:	89 c7                	mov    %eax,%edi
    2566:	e8 04 fa ff ff       	callq  1f6f <rio_writen>
    256b:	48 85 c0             	test   %rax,%rax
    256e:	79 64                	jns    25d4 <submitr+0x47a>
    2570:	48 8b 45 10          	mov    0x10(%rbp),%rax
    2574:	48 bb 45 72 72 6f 72 	movabs $0x43203a726f727245,%rbx
    257b:	3a 20 43 
    257e:	48 89 18             	mov    %rbx,(%rax)
    2581:	48 ba 6c 69 65 6e 74 	movabs $0x6e7520746e65696c,%rdx
    2588:	20 75 6e 
    258b:	48 89 50 08          	mov    %rdx,0x8(%rax)
    258f:	48 b9 61 62 6c 65 20 	movabs $0x206f7420656c6261,%rcx
    2596:	74 6f 20 
    2599:	48 89 48 10          	mov    %rcx,0x10(%rax)
    259d:	48 be 77 72 69 74 65 	movabs $0x6f74206574697277,%rsi
    25a4:	20 74 6f 
    25a7:	48 89 70 18          	mov    %rsi,0x18(%rax)
    25ab:	48 bb 20 74 68 65 20 	movabs $0x7265732065687420,%rbx
    25b2:	73 65 72 
    25b5:	48 89 58 20          	mov    %rbx,0x20(%rax)
    25b9:	c7 40 28 76 65 72 00 	movl   $0x726576,0x28(%rax)
    25c0:	8b 45 ec             	mov    -0x14(%rbp),%eax
    25c3:	89 c7                	mov    %eax,%edi
    25c5:	e8 a6 e9 ff ff       	callq  f70 <close@plt>
    25ca:	b8 ff ff ff ff       	mov    $0xffffffff,%eax
    25cf:	e9 b4 02 00 00       	jmpq   2888 <submitr+0x72e>
    25d4:	8b 55 ec             	mov    -0x14(%rbp),%edx
    25d7:	48 8d 85 b0 df ff ff 	lea    -0x2050(%rbp),%rax
    25de:	89 d6                	mov    %edx,%esi
    25e0:	48 89 c7             	mov    %rax,%rdi
    25e3:	e8 b9 f7 ff ff       	callq  1da1 <rio_readinitb>
    25e8:	48 8d 8d b0 bf ff ff 	lea    -0x4050(%rbp),%rcx
    25ef:	48 8d 85 b0 df ff ff 	lea    -0x2050(%rbp),%rax
    25f6:	ba 00 20 00 00       	mov    $0x2000,%edx
    25fb:	48 89 ce             	mov    %rcx,%rsi
    25fe:	48 89 c7             	mov    %rax,%rdi
    2601:	e8 cb f8 ff ff       	callq  1ed1 <rio_readlineb>
    2606:	48 85 c0             	test   %rax,%rax
    2609:	7f 78                	jg     2683 <submitr+0x529>
    260b:	48 8b 45 10          	mov    0x10(%rbp),%rax
    260f:	48 ba 45 72 72 6f 72 	movabs $0x43203a726f727245,%rdx
    2616:	3a 20 43 
    2619:	48 89 10             	mov    %rdx,(%rax)
    261c:	48 b9 6c 69 65 6e 74 	movabs $0x6e7520746e65696c,%rcx
    2623:	20 75 6e 
    2626:	48 89 48 08          	mov    %rcx,0x8(%rax)
    262a:	48 be 61 62 6c 65 20 	movabs $0x206f7420656c6261,%rsi
    2631:	74 6f 20 
    2634:	48 89 70 10          	mov    %rsi,0x10(%rax)
    2638:	48 bb 72 65 61 64 20 	movabs $0x7269662064616572,%rbx
    263f:	66 69 72 
    2642:	48 89 58 18          	mov    %rbx,0x18(%rax)
    2646:	48 bf 73 74 20 68 65 	movabs $0x6564616568207473,%rdi
    264d:	61 64 65 
    2650:	48 89 78 20          	mov    %rdi,0x20(%rax)
    2654:	48 ba 72 20 66 72 6f 	movabs $0x73206d6f72662072,%rdx
    265b:	6d 20 73 
    265e:	48 89 50 28          	mov    %rdx,0x28(%rax)
    2662:	c7 40 30 65 72 76 65 	movl   $0x65767265,0x30(%rax)
    2669:	66 c7 40 34 72 00    	movw   $0x72,0x34(%rax)
    266f:	8b 45 ec             	mov    -0x14(%rbp),%eax
    2672:	89 c7                	mov    %eax,%edi
    2674:	e8 f7 e8 ff ff       	callq  f70 <close@plt>
    2679:	b8 ff ff ff ff       	mov    $0xffffffff,%eax
    267e:	e9 05 02 00 00       	jmpq   2888 <submitr+0x72e>
    2683:	48 8d b5 a0 5f ff ff 	lea    -0xa060(%rbp),%rsi
    268a:	48 8d 8d ac 7f ff ff 	lea    -0x8054(%rbp),%rcx
    2691:	48 8d 95 b0 7f ff ff 	lea    -0x8050(%rbp),%rdx
    2698:	48 8d 85 b0 bf ff ff 	lea    -0x4050(%rbp),%rax
    269f:	49 89 f0             	mov    %rsi,%r8
    26a2:	48 8d 35 89 09 00 00 	lea    0x989(%rip),%rsi        # 3032 <_IO_stdin_used+0x432>
    26a9:	48 89 c7             	mov    %rax,%rdi
    26ac:	b8 00 00 00 00       	mov    $0x0,%eax
    26b1:	e8 4a e9 ff ff       	callq  1000 <__isoc99_sscanf@plt>
    26b6:	8b 85 ac 7f ff ff    	mov    -0x8054(%rbp),%eax
    26bc:	3d c8 00 00 00       	cmp    $0xc8,%eax
    26c1:	0f 84 cd 00 00 00    	je     2794 <submitr+0x63a>
    26c7:	8b 85 ac 7f ff ff    	mov    -0x8054(%rbp),%eax
    26cd:	48 8d 95 a0 5f ff ff 	lea    -0xa060(%rbp),%rdx
    26d4:	48 89 d1             	mov    %rdx,%rcx
    26d7:	89 c2                	mov    %eax,%edx
    26d9:	48 8d 35 68 09 00 00 	lea    0x968(%rip),%rsi        # 3048 <_IO_stdin_used+0x448>
    26e0:	48 8b 7d 10          	mov    0x10(%rbp),%rdi
    26e4:	b8 00 00 00 00       	mov    $0x0,%eax
    26e9:	e8 62 e9 ff ff       	callq  1050 <sprintf@plt>
    26ee:	8b 45 ec             	mov    -0x14(%rbp),%eax
    26f1:	89 c7                	mov    %eax,%edi
    26f3:	e8 78 e8 ff ff       	callq  f70 <close@plt>
    26f8:	b8 ff ff ff ff       	mov    $0xffffffff,%eax
    26fd:	e9 86 01 00 00       	jmpq   2888 <submitr+0x72e>
    2702:	48 8d 8d b0 bf ff ff 	lea    -0x4050(%rbp),%rcx
    2709:	48 8d 85 b0 df ff ff 	lea    -0x2050(%rbp),%rax
    2710:	ba 00 20 00 00       	mov    $0x2000,%edx
    2715:	48 89 ce             	mov    %rcx,%rsi
    2718:	48 89 c7             	mov    %rax,%rdi
    271b:	e8 b1 f7 ff ff       	callq  1ed1 <rio_readlineb>
    2720:	48 85 c0             	test   %rax,%rax
    2723:	7f 6f                	jg     2794 <submitr+0x63a>
    2725:	48 8b 45 10          	mov    0x10(%rbp),%rax
    2729:	48 b9 45 72 72 6f 72 	movabs $0x43203a726f727245,%rcx
    2730:	3a 20 43 
    2733:	48 89 08             	mov    %rcx,(%rax)
    2736:	48 be 6c 69 65 6e 74 	movabs $0x6e7520746e65696c,%rsi
    273d:	20 75 6e 
    2740:	48 89 70 08          	mov    %rsi,0x8(%rax)
    2744:	48 bb 61 62 6c 65 20 	movabs $0x206f7420656c6261,%rbx
    274b:	74 6f 20 
    274e:	48 89 58 10          	mov    %rbx,0x10(%rax)
    2752:	48 bf 72 65 61 64 20 	movabs $0x6165682064616572,%rdi
    2759:	68 65 61 
    275c:	48 89 78 18          	mov    %rdi,0x18(%rax)
    2760:	48 ba 64 65 72 73 20 	movabs $0x6f72662073726564,%rdx
    2767:	66 72 6f 
    276a:	48 89 50 20          	mov    %rdx,0x20(%rax)
    276e:	48 b9 6d 20 73 65 72 	movabs $0x726576726573206d,%rcx
    2775:	76 65 72 
    2778:	48 89 48 28          	mov    %rcx,0x28(%rax)
    277c:	c6 40 30 00          	movb   $0x0,0x30(%rax)
    2780:	8b 45 ec             	mov    -0x14(%rbp),%eax
    2783:	89 c7                	mov    %eax,%edi
    2785:	e8 e6 e7 ff ff       	callq  f70 <close@plt>
    278a:	b8 ff ff ff ff       	mov    $0xffffffff,%eax
    278f:	e9 f4 00 00 00       	jmpq   2888 <submitr+0x72e>
    2794:	48 8d 85 b0 bf ff ff 	lea    -0x4050(%rbp),%rax
    279b:	48 8d 35 d3 08 00 00 	lea    0x8d3(%rip),%rsi        # 3075 <_IO_stdin_used+0x475>
    27a2:	48 89 c7             	mov    %rax,%rdi
    27a5:	e8 f6 e7 ff ff       	callq  fa0 <strcmp@plt>
    27aa:	85 c0                	test   %eax,%eax
    27ac:	0f 85 50 ff ff ff    	jne    2702 <submitr+0x5a8>
    27b2:	48 8d 8d b0 bf ff ff 	lea    -0x4050(%rbp),%rcx
    27b9:	48 8d 85 b0 df ff ff 	lea    -0x2050(%rbp),%rax
    27c0:	ba 00 20 00 00       	mov    $0x2000,%edx
    27c5:	48 89 ce             	mov    %rcx,%rsi
    27c8:	48 89 c7             	mov    %rax,%rdi
    27cb:	e8 01 f7 ff ff       	callq  1ed1 <rio_readlineb>
    27d0:	48 85 c0             	test   %rax,%rax
    27d3:	7f 76                	jg     284b <submitr+0x6f1>
    27d5:	48 8b 45 10          	mov    0x10(%rbp),%rax
    27d9:	48 be 45 72 72 6f 72 	movabs $0x43203a726f727245,%rsi
    27e0:	3a 20 43 
    27e3:	48 89 30             	mov    %rsi,(%rax)
    27e6:	48 bb 6c 69 65 6e 74 	movabs $0x6e7520746e65696c,%rbx
    27ed:	20 75 6e 
    27f0:	48 89 58 08          	mov    %rbx,0x8(%rax)
    27f4:	48 bf 61 62 6c 65 20 	movabs $0x206f7420656c6261,%rdi
    27fb:	74 6f 20 
    27fe:	48 89 78 10          	mov    %rdi,0x10(%rax)
    2802:	48 ba 72 65 61 64 20 	movabs $0x6174732064616572,%rdx
    2809:	73 74 61 
    280c:	48 89 50 18          	mov    %rdx,0x18(%rax)
    2810:	48 b9 74 75 73 20 6d 	movabs $0x7373656d20737574,%rcx
    2817:	65 73 73 
    281a:	48 89 48 20          	mov    %rcx,0x20(%rax)
    281e:	48 be 61 67 65 20 66 	movabs $0x6d6f726620656761,%rsi
    2825:	72 6f 6d 
    2828:	48 89 70 28          	mov    %rsi,0x28(%rax)
    282c:	48 bb 20 73 65 72 76 	movabs $0x72657672657320,%rbx
    2833:	65 72 00 
    2836:	48 89 58 30          	mov    %rbx,0x30(%rax)
    283a:	8b 45 ec             	mov    -0x14(%rbp),%eax
    283d:	89 c7                	mov    %eax,%edi
    283f:	e8 2c e7 ff ff       	callq  f70 <close@plt>
    2844:	b8 ff ff ff ff       	mov    $0xffffffff,%eax
    2849:	eb 3d                	jmp    2888 <submitr+0x72e>
    284b:	48 8d 85 b0 bf ff ff 	lea    -0x4050(%rbp),%rax
    2852:	48 89 c6             	mov    %rax,%rsi
    2855:	48 8b 7d 10          	mov    0x10(%rbp),%rdi
    2859:	e8 a2 e6 ff ff       	callq  f00 <strcpy@plt>
    285e:	8b 45 ec             	mov    -0x14(%rbp),%eax
    2861:	89 c7                	mov    %eax,%edi
    2863:	e8 08 e7 ff ff       	callq  f70 <close@plt>
    2868:	48 8d 35 09 08 00 00 	lea    0x809(%rip),%rsi        # 3078 <_IO_stdin_used+0x478>
    286f:	48 8b 7d 10          	mov    0x10(%rbp),%rdi
    2873:	e8 28 e7 ff ff       	callq  fa0 <strcmp@plt>
    2878:	85 c0                	test   %eax,%eax
    287a:	75 07                	jne    2883 <submitr+0x729>
    287c:	b8 00 00 00 00       	mov    $0x0,%eax
    2881:	eb 05                	jmp    2888 <submitr+0x72e>
    2883:	b8 ff ff ff ff       	mov    $0xffffffff,%eax
    2888:	48 81 c4 88 a0 00 00 	add    $0xa088,%rsp
    288f:	5b                   	pop    %rbx
    2890:	5d                   	pop    %rbp
    2891:	c3                   	retq   

0000000000002892 <init_timeout>:
init_timeout():
    2892:	55                   	push   %rbp
    2893:	48 89 e5             	mov    %rsp,%rbp
    2896:	48 83 ec 10          	sub    $0x10,%rsp
    289a:	89 7d fc             	mov    %edi,-0x4(%rbp)
    289d:	83 7d fc 00          	cmpl   $0x0,-0x4(%rbp)
    28a1:	74 2a                	je     28cd <init_timeout+0x3b>
    28a3:	83 7d fc 00          	cmpl   $0x0,-0x4(%rbp)
    28a7:	79 07                	jns    28b0 <init_timeout+0x1e>
    28a9:	c7 45 fc 00 00 00 00 	movl   $0x0,-0x4(%rbp)
    28b0:	48 8d 35 b5 f4 ff ff 	lea    -0xb4b(%rip),%rsi        # 1d6c <sigalrm_handler>
    28b7:	bf 0e 00 00 00       	mov    $0xe,%edi
    28bc:	e8 ef e6 ff ff       	callq  fb0 <signal@plt>
    28c1:	8b 45 fc             	mov    -0x4(%rbp),%eax
    28c4:	89 c7                	mov    %eax,%edi
    28c6:	e8 95 e6 ff ff       	callq  f60 <alarm@plt>
    28cb:	eb 01                	jmp    28ce <init_timeout+0x3c>
    28cd:	90                   	nop
    28ce:	c9                   	leaveq 
    28cf:	c3                   	retq   

00000000000028d0 <init_driver>:
init_driver():
    28d0:	55                   	push   %rbp
    28d1:	48 89 e5             	mov    %rsp,%rbp
    28d4:	48 83 ec 40          	sub    $0x40,%rsp
    28d8:	48 89 7d c8          	mov    %rdi,-0x38(%rbp)
    28dc:	48 8d 05 98 07 00 00 	lea    0x798(%rip),%rax        # 307b <_IO_stdin_used+0x47b>
    28e3:	48 89 45 f8          	mov    %rax,-0x8(%rbp)
    28e7:	c7 45 f4 6e 3b 00 00 	movl   $0x3b6e,-0xc(%rbp)
    28ee:	be 01 00 00 00       	mov    $0x1,%esi
    28f3:	bf 0d 00 00 00       	mov    $0xd,%edi
    28f8:	e8 b3 e6 ff ff       	callq  fb0 <signal@plt>
    28fd:	be 01 00 00 00       	mov    $0x1,%esi
    2902:	bf 1d 00 00 00       	mov    $0x1d,%edi
    2907:	e8 a4 e6 ff ff       	callq  fb0 <signal@plt>
    290c:	be 01 00 00 00       	mov    $0x1,%esi
    2911:	bf 1d 00 00 00       	mov    $0x1d,%edi
    2916:	e8 95 e6 ff ff       	callq  fb0 <signal@plt>
    291b:	ba 00 00 00 00       	mov    $0x0,%edx
    2920:	be 01 00 00 00       	mov    $0x1,%esi
    2925:	bf 02 00 00 00       	mov    $0x2,%edi
    292a:	e8 71 e7 ff ff       	callq  10a0 <socket@plt>
    292f:	89 45 f0             	mov    %eax,-0x10(%rbp)
    2932:	83 7d f0 00          	cmpl   $0x0,-0x10(%rbp)
    2936:	79 52                	jns    298a <init_driver+0xba>
    2938:	48 8b 45 c8          	mov    -0x38(%rbp),%rax
    293c:	48 b9 45 72 72 6f 72 	movabs $0x43203a726f727245,%rcx
    2943:	3a 20 43 
    2946:	48 89 08             	mov    %rcx,(%rax)
    2949:	48 ba 6c 69 65 6e 74 	movabs $0x6e7520746e65696c,%rdx
    2950:	20 75 6e 
    2953:	48 89 50 08          	mov    %rdx,0x8(%rax)
    2957:	48 b9 61 62 6c 65 20 	movabs $0x206f7420656c6261,%rcx
    295e:	74 6f 20 
    2961:	48 89 48 10          	mov    %rcx,0x10(%rax)
    2965:	48 be 63 72 65 61 74 	movabs $0x7320657461657263,%rsi
    296c:	65 20 73 
    296f:	48 89 70 18          	mov    %rsi,0x18(%rax)
    2973:	c7 40 20 6f 63 6b 65 	movl   $0x656b636f,0x20(%rax)
    297a:	66 c7 40 24 74 00    	movw   $0x74,0x24(%rax)
    2980:	b8 ff ff ff ff       	mov    $0xffffffff,%eax
    2985:	e9 38 01 00 00       	jmpq   2ac2 <init_driver+0x1f2>
    298a:	48 8b 45 f8          	mov    -0x8(%rbp),%rax
    298e:	48 89 c7             	mov    %rax,%rdi
    2991:	e8 2a e6 ff ff       	callq  fc0 <gethostbyname@plt>
    2996:	48 89 45 e8          	mov    %rax,-0x18(%rbp)
    299a:	48 83 7d e8 00       	cmpq   $0x0,-0x18(%rbp)
    299f:	75 6e                	jne    2a0f <init_driver+0x13f>
    29a1:	48 8b 45 c8          	mov    -0x38(%rbp),%rax
    29a5:	48 ba 45 72 72 6f 72 	movabs $0x44203a726f727245,%rdx
    29ac:	3a 20 44 
    29af:	48 89 10             	mov    %rdx,(%rax)
    29b2:	48 b9 4e 53 20 69 73 	movabs $0x6e7520736920534e,%rcx
    29b9:	20 75 6e 
    29bc:	48 89 48 08          	mov    %rcx,0x8(%rax)
    29c0:	48 be 61 62 6c 65 20 	movabs $0x206f7420656c6261,%rsi
    29c7:	74 6f 20 
    29ca:	48 89 70 10          	mov    %rsi,0x10(%rax)
    29ce:	48 ba 72 65 73 6f 6c 	movabs $0x2065766c6f736572,%rdx
    29d5:	76 65 20 
    29d8:	48 89 50 18          	mov    %rdx,0x18(%rax)
    29dc:	48 b9 73 65 72 76 65 	movabs $0x6120726576726573,%rcx
    29e3:	72 20 61 
    29e6:	48 89 48 20          	mov    %rcx,0x20(%rax)
    29ea:	c7 40 28 64 64 72 65 	movl   $0x65726464,0x28(%rax)
    29f1:	66 c7 40 2c 73 73    	movw   $0x7373,0x2c(%rax)
    29f7:	c6 40 2e 00          	movb   $0x0,0x2e(%rax)
    29fb:	8b 45 f0             	mov    -0x10(%rbp),%eax
    29fe:	89 c7                	mov    %eax,%edi
    2a00:	e8 6b e5 ff ff       	callq  f70 <close@plt>
    2a05:	b8 ff ff ff ff       	mov    $0xffffffff,%eax
    2a0a:	e9 b3 00 00 00       	jmpq   2ac2 <init_driver+0x1f2>
    2a0f:	48 8d 45 d0          	lea    -0x30(%rbp),%rax
    2a13:	be 10 00 00 00       	mov    $0x10,%esi
    2a18:	48 89 c7             	mov    %rax,%rdi
    2a1b:	e8 10 e6 ff ff       	callq  1030 <bzero@plt>
    2a20:	66 c7 45 d0 02 00    	movw   $0x2,-0x30(%rbp)
    2a26:	48 8b 45 e8          	mov    -0x18(%rbp),%rax
    2a2a:	8b 40 14             	mov    0x14(%rax),%eax
    2a2d:	48 63 d0             	movslq %eax,%rdx
    2a30:	48 8b 45 e8          	mov    -0x18(%rbp),%rax
    2a34:	48 8b 40 18          	mov    0x18(%rax),%rax
    2a38:	48 8b 00             	mov    (%rax),%rax
    2a3b:	48 8d 4d d0          	lea    -0x30(%rbp),%rcx
    2a3f:	48 83 c1 04          	add    $0x4,%rcx
    2a43:	48 89 ce             	mov    %rcx,%rsi
    2a46:	48 89 c7             	mov    %rax,%rdi
    2a49:	e8 c2 e5 ff ff       	callq  1010 <bcopy@plt>
    2a4e:	8b 45 f4             	mov    -0xc(%rbp),%eax
    2a51:	0f b7 c0             	movzwl %ax,%eax
    2a54:	89 c7                	mov    %eax,%edi
    2a56:	e8 e5 e4 ff ff       	callq  f40 <htons@plt>
    2a5b:	66 89 45 d2          	mov    %ax,-0x2e(%rbp)
    2a5f:	48 8d 4d d0          	lea    -0x30(%rbp),%rcx
    2a63:	8b 45 f0             	mov    -0x10(%rbp),%eax
    2a66:	ba 10 00 00 00       	mov    $0x10,%edx
    2a6b:	48 89 ce             	mov    %rcx,%rsi
    2a6e:	89 c7                	mov    %eax,%edi
    2a70:	e8 fb e5 ff ff       	callq  1070 <connect@plt>
    2a75:	85 c0                	test   %eax,%eax
    2a77:	79 2d                	jns    2aa6 <init_driver+0x1d6>
    2a79:	48 8b 55 f8          	mov    -0x8(%rbp),%rdx
    2a7d:	48 8b 45 c8          	mov    -0x38(%rbp),%rax
    2a81:	48 8d 35 10 06 00 00 	lea    0x610(%rip),%rsi        # 3098 <_IO_stdin_used+0x498>
    2a88:	48 89 c7             	mov    %rax,%rdi
    2a8b:	b8 00 00 00 00       	mov    $0x0,%eax
    2a90:	e8 bb e5 ff ff       	callq  1050 <sprintf@plt>
    2a95:	8b 45 f0             	mov    -0x10(%rbp),%eax
    2a98:	89 c7                	mov    %eax,%edi
    2a9a:	e8 d1 e4 ff ff       	callq  f70 <close@plt>
    2a9f:	b8 ff ff ff ff       	mov    $0xffffffff,%eax
    2aa4:	eb 1c                	jmp    2ac2 <init_driver+0x1f2>
    2aa6:	8b 45 f0             	mov    -0x10(%rbp),%eax
    2aa9:	89 c7                	mov    %eax,%edi
    2aab:	e8 c0 e4 ff ff       	callq  f70 <close@plt>
    2ab0:	48 8b 45 c8          	mov    -0x38(%rbp),%rax
    2ab4:	66 c7 00 4f 4b       	movw   $0x4b4f,(%rax)
    2ab9:	c6 40 02 00          	movb   $0x0,0x2(%rax)
    2abd:	b8 00 00 00 00       	mov    $0x0,%eax
    2ac2:	c9                   	leaveq 
    2ac3:	c3                   	retq   

0000000000002ac4 <driver_post>:
driver_post():
    2ac4:	55                   	push   %rbp
    2ac5:	48 89 e5             	mov    %rsp,%rbp
    2ac8:	48 83 ec 30          	sub    $0x30,%rsp
    2acc:	48 89 7d e8          	mov    %rdi,-0x18(%rbp)
    2ad0:	48 89 75 e0          	mov    %rsi,-0x20(%rbp)
    2ad4:	89 55 dc             	mov    %edx,-0x24(%rbp)
    2ad7:	48 89 4d d0          	mov    %rcx,-0x30(%rbp)
    2adb:	83 7d dc 00          	cmpl   $0x0,-0x24(%rbp)
    2adf:	74 2c                	je     2b0d <driver_post+0x49>
    2ae1:	48 8b 45 e0          	mov    -0x20(%rbp),%rax
    2ae5:	48 89 c6             	mov    %rax,%rsi
    2ae8:	48 8d 3d cf 05 00 00 	lea    0x5cf(%rip),%rdi        # 30be <_IO_stdin_used+0x4be>
    2aef:	b8 00 00 00 00       	mov    $0x0,%eax
    2af4:	e8 57 e4 ff ff       	callq  f50 <printf@plt>
    2af9:	48 8b 45 d0          	mov    -0x30(%rbp),%rax
    2afd:	66 c7 00 4f 4b       	movw   $0x4b4f,(%rax)
    2b02:	c6 40 02 00          	movb   $0x0,0x2(%rax)
    2b06:	b8 00 00 00 00       	mov    $0x0,%eax
    2b0b:	eb 64                	jmp    2b71 <driver_post+0xad>
    2b0d:	48 83 7d e8 00       	cmpq   $0x0,-0x18(%rbp)
    2b12:	74 4b                	je     2b5f <driver_post+0x9b>
    2b14:	48 8b 45 e8          	mov    -0x18(%rbp),%rax
    2b18:	0f b6 00             	movzbl (%rax),%eax
    2b1b:	84 c0                	test   %al,%al
    2b1d:	74 40                	je     2b5f <driver_post+0x9b>
    2b1f:	48 8b 55 e0          	mov    -0x20(%rbp),%rdx
    2b23:	48 8b 45 e8          	mov    -0x18(%rbp),%rax
    2b27:	48 83 ec 08          	sub    $0x8,%rsp
    2b2b:	ff 75 d0             	pushq  -0x30(%rbp)
    2b2e:	49 89 d1             	mov    %rdx,%r9
    2b31:	4c 8d 05 9d 05 00 00 	lea    0x59d(%rip),%r8        # 30d5 <_IO_stdin_used+0x4d5>
    2b38:	48 89 c1             	mov    %rax,%rcx
    2b3b:	48 8d 15 9b 05 00 00 	lea    0x59b(%rip),%rdx        # 30dd <_IO_stdin_used+0x4dd>
    2b42:	be 6e 3b 00 00       	mov    $0x3b6e,%esi
    2b47:	48 8d 3d 2d 05 00 00 	lea    0x52d(%rip),%rdi        # 307b <_IO_stdin_used+0x47b>
    2b4e:	e8 07 f6 ff ff       	callq  215a <submitr>
    2b53:	48 83 c4 10          	add    $0x10,%rsp
    2b57:	89 45 fc             	mov    %eax,-0x4(%rbp)
    2b5a:	8b 45 fc             	mov    -0x4(%rbp),%eax
    2b5d:	eb 12                	jmp    2b71 <driver_post+0xad>
    2b5f:	48 8b 45 d0          	mov    -0x30(%rbp),%rax
    2b63:	66 c7 00 4f 4b       	movw   $0x4b4f,(%rax)
    2b68:	c6 40 02 00          	movb   $0x0,0x2(%rax)
    2b6c:	b8 00 00 00 00       	mov    $0x0,%eax
    2b71:	c9                   	leaveq 
    2b72:	c3                   	retq   
    2b73:	66 2e 0f 1f 84 00 00 	nopw   %cs:0x0(%rax,%rax,1)
    2b7a:	00 00 00 
    2b7d:	0f 1f 00             	nopl   (%rax)

0000000000002b80 <__libc_csu_init>:
__libc_csu_init():
    2b80:	41 57                	push   %r15
    2b82:	41 56                	push   %r14
    2b84:	41 89 ff             	mov    %edi,%r15d
    2b87:	41 55                	push   %r13
    2b89:	41 54                	push   %r12
    2b8b:	4c 8d 25 46 12 20 00 	lea    0x201246(%rip),%r12        # 203dd8 <__frame_dummy_init_array_entry>
    2b92:	55                   	push   %rbp
    2b93:	48 8d 2d 46 12 20 00 	lea    0x201246(%rip),%rbp        # 203de0 <__init_array_end>
    2b9a:	53                   	push   %rbx
    2b9b:	49 89 f6             	mov    %rsi,%r14
    2b9e:	49 89 d5             	mov    %rdx,%r13
    2ba1:	4c 29 e5             	sub    %r12,%rbp
    2ba4:	48 83 ec 08          	sub    $0x8,%rsp
    2ba8:	48 c1 fd 03          	sar    $0x3,%rbp
    2bac:	e8 ff e2 ff ff       	callq  eb0 <_init>
    2bb1:	48 85 ed             	test   %rbp,%rbp
    2bb4:	74 20                	je     2bd6 <__libc_csu_init+0x56>
    2bb6:	31 db                	xor    %ebx,%ebx
    2bb8:	0f 1f 84 00 00 00 00 	nopl   0x0(%rax,%rax,1)
    2bbf:	00 
    2bc0:	4c 89 ea             	mov    %r13,%rdx
    2bc3:	4c 89 f6             	mov    %r14,%rsi
    2bc6:	44 89 ff             	mov    %r15d,%edi
    2bc9:	41 ff 14 dc          	callq  *(%r12,%rbx,8)
    2bcd:	48 83 c3 01          	add    $0x1,%rbx
    2bd1:	48 39 dd             	cmp    %rbx,%rbp
    2bd4:	75 ea                	jne    2bc0 <__libc_csu_init+0x40>
    2bd6:	48 83 c4 08          	add    $0x8,%rsp
    2bda:	5b                   	pop    %rbx
    2bdb:	5d                   	pop    %rbp
    2bdc:	41 5c                	pop    %r12
    2bde:	41 5d                	pop    %r13
    2be0:	41 5e                	pop    %r14
    2be2:	41 5f                	pop    %r15
    2be4:	c3                   	retq   
    2be5:	90                   	nop
    2be6:	66 2e 0f 1f 84 00 00 	nopw   %cs:0x0(%rax,%rax,1)
    2bed:	00 00 00 

0000000000002bf0 <__libc_csu_fini>:
__libc_csu_fini():
    2bf0:	f3 c3                	repz retq 

Disassembly of section .fini:

0000000000002bf4 <_fini>:
_fini():
    2bf4:	48 83 ec 08          	sub    $0x8,%rsp
    2bf8:	48 83 c4 08          	add    $0x8,%rsp
    2bfc:	c3                   	retq   
